
4.out:     file format elf64-x86-64


Disassembly of section .init:

0000000000001000 <_init>:
    1000:	f3 0f 1e fa          	endbr64 
    1004:	48 83 ec 08          	sub    $0x8,%rsp
    1008:	48 8b 05 d9 2f 00 00 	mov    0x2fd9(%rip),%rax        # 3fe8 <__gmon_start__>
    100f:	48 85 c0             	test   %rax,%rax
    1012:	74 02                	je     1016 <_init+0x16>
    1014:	ff d0                	callq  *%rax
    1016:	48 83 c4 08          	add    $0x8,%rsp
    101a:	c3                   	retq   

Disassembly of section .plt:

0000000000001020 <.plt>:
    1020:	ff 35 4a 2f 00 00    	pushq  0x2f4a(%rip)        # 3f70 <_GLOBAL_OFFSET_TABLE_+0x8>
    1026:	f2 ff 25 4b 2f 00 00 	bnd jmpq *0x2f4b(%rip)        # 3f78 <_GLOBAL_OFFSET_TABLE_+0x10>
    102d:	0f 1f 00             	nopl   (%rax)
    1030:	f3 0f 1e fa          	endbr64 
    1034:	68 00 00 00 00       	pushq  $0x0
    1039:	f2 e9 e1 ff ff ff    	bnd jmpq 1020 <.plt>
    103f:	90                   	nop
    1040:	f3 0f 1e fa          	endbr64 
    1044:	68 01 00 00 00       	pushq  $0x1
    1049:	f2 e9 d1 ff ff ff    	bnd jmpq 1020 <.plt>
    104f:	90                   	nop
    1050:	f3 0f 1e fa          	endbr64 
    1054:	68 02 00 00 00       	pushq  $0x2
    1059:	f2 e9 c1 ff ff ff    	bnd jmpq 1020 <.plt>
    105f:	90                   	nop
    1060:	f3 0f 1e fa          	endbr64 
    1064:	68 03 00 00 00       	pushq  $0x3
    1069:	f2 e9 b1 ff ff ff    	bnd jmpq 1020 <.plt>
    106f:	90                   	nop
    1070:	f3 0f 1e fa          	endbr64 
    1074:	68 04 00 00 00       	pushq  $0x4
    1079:	f2 e9 a1 ff ff ff    	bnd jmpq 1020 <.plt>
    107f:	90                   	nop
    1080:	f3 0f 1e fa          	endbr64 
    1084:	68 05 00 00 00       	pushq  $0x5
    1089:	f2 e9 91 ff ff ff    	bnd jmpq 1020 <.plt>
    108f:	90                   	nop
    1090:	f3 0f 1e fa          	endbr64 
    1094:	68 06 00 00 00       	pushq  $0x6
    1099:	f2 e9 81 ff ff ff    	bnd jmpq 1020 <.plt>
    109f:	90                   	nop
    10a0:	f3 0f 1e fa          	endbr64 
    10a4:	68 07 00 00 00       	pushq  $0x7
    10a9:	f2 e9 71 ff ff ff    	bnd jmpq 1020 <.plt>
    10af:	90                   	nop
    10b0:	f3 0f 1e fa          	endbr64 
    10b4:	68 08 00 00 00       	pushq  $0x8
    10b9:	f2 e9 61 ff ff ff    	bnd jmpq 1020 <.plt>
    10bf:	90                   	nop

Disassembly of section .plt.got:

00000000000010c0 <__cxa_finalize@plt>:
    10c0:	f3 0f 1e fa          	endbr64 
    10c4:	f2 ff 25 fd 2e 00 00 	bnd jmpq *0x2efd(%rip)        # 3fc8 <__cxa_finalize@GLIBC_2.2.5>
    10cb:	0f 1f 44 00 00       	nopl   0x0(%rax,%rax,1)

Disassembly of section .plt.sec:

00000000000010d0 <_ZNSt8ios_base15sync_with_stdioEb@plt>:
    10d0:	f3 0f 1e fa          	endbr64 
    10d4:	f2 ff 25 a5 2e 00 00 	bnd jmpq *0x2ea5(%rip)        # 3f80 <_ZNSt8ios_base15sync_with_stdioEb@GLIBCXX_3.4>
    10db:	0f 1f 44 00 00       	nopl   0x0(%rax,%rax,1)

00000000000010e0 <_ZNSirsERi@plt>:
    10e0:	f3 0f 1e fa          	endbr64 
    10e4:	f2 ff 25 9d 2e 00 00 	bnd jmpq *0x2e9d(%rip)        # 3f88 <_ZNSirsERi@GLIBCXX_3.4>
    10eb:	0f 1f 44 00 00       	nopl   0x0(%rax,%rax,1)

00000000000010f0 <_ZNSt9basic_iosIcSt11char_traitsIcEE3tieEPSo@plt>:
    10f0:	f3 0f 1e fa          	endbr64 
    10f4:	f2 ff 25 95 2e 00 00 	bnd jmpq *0x2e95(%rip)        # 3f90 <_ZNSt9basic_iosIcSt11char_traitsIcEE3tieEPSo@GLIBCXX_3.4>
    10fb:	0f 1f 44 00 00       	nopl   0x0(%rax,%rax,1)

0000000000001100 <__cxa_atexit@plt>:
    1100:	f3 0f 1e fa          	endbr64 
    1104:	f2 ff 25 8d 2e 00 00 	bnd jmpq *0x2e8d(%rip)        # 3f98 <__cxa_atexit@GLIBC_2.2.5>
    110b:	0f 1f 44 00 00       	nopl   0x0(%rax,%rax,1)

0000000000001110 <_ZStlsISt11char_traitsIcEERSt13basic_ostreamIcT_ES5_PKc@plt>:
    1110:	f3 0f 1e fa          	endbr64 
    1114:	f2 ff 25 85 2e 00 00 	bnd jmpq *0x2e85(%rip)        # 3fa0 <_ZStlsISt11char_traitsIcEERSt13basic_ostreamIcT_ES5_PKc@GLIBCXX_3.4>
    111b:	0f 1f 44 00 00       	nopl   0x0(%rax,%rax,1)

0000000000001120 <_ZNSolsEPFRSoS_E@plt>:
    1120:	f3 0f 1e fa          	endbr64 
    1124:	f2 ff 25 7d 2e 00 00 	bnd jmpq *0x2e7d(%rip)        # 3fa8 <_ZNSolsEPFRSoS_E@GLIBCXX_3.4>
    112b:	0f 1f 44 00 00       	nopl   0x0(%rax,%rax,1)

0000000000001130 <__stack_chk_fail@plt>:
    1130:	f3 0f 1e fa          	endbr64 
    1134:	f2 ff 25 75 2e 00 00 	bnd jmpq *0x2e75(%rip)        # 3fb0 <__stack_chk_fail@GLIBC_2.4>
    113b:	0f 1f 44 00 00       	nopl   0x0(%rax,%rax,1)

0000000000001140 <_ZNSirsERx@plt>:
    1140:	f3 0f 1e fa          	endbr64 
    1144:	f2 ff 25 6d 2e 00 00 	bnd jmpq *0x2e6d(%rip)        # 3fb8 <_ZNSirsERx@GLIBCXX_3.4>
    114b:	0f 1f 44 00 00       	nopl   0x0(%rax,%rax,1)

0000000000001150 <_ZNSt8ios_base4InitC1Ev@plt>:
    1150:	f3 0f 1e fa          	endbr64 
    1154:	f2 ff 25 65 2e 00 00 	bnd jmpq *0x2e65(%rip)        # 3fc0 <_ZNSt8ios_base4InitC1Ev@GLIBCXX_3.4>
    115b:	0f 1f 44 00 00       	nopl   0x0(%rax,%rax,1)

Disassembly of section .text:

0000000000001160 <_start>:
    1160:	f3 0f 1e fa          	endbr64 
    1164:	31 ed                	xor    %ebp,%ebp
    1166:	49 89 d1             	mov    %rdx,%r9
    1169:	5e                   	pop    %rsi
    116a:	48 89 e2             	mov    %rsp,%rdx
    116d:	48 83 e4 f0          	and    $0xfffffffffffffff0,%rsp
    1171:	50                   	push   %rax
    1172:	54                   	push   %rsp
    1173:	4c 8d 05 46 03 00 00 	lea    0x346(%rip),%r8        # 14c0 <__libc_csu_fini>
    117a:	48 8d 0d cf 02 00 00 	lea    0x2cf(%rip),%rcx        # 1450 <__libc_csu_init>
    1181:	48 8d 3d c1 00 00 00 	lea    0xc1(%rip),%rdi        # 1249 <main>
    1188:	ff 15 52 2e 00 00    	callq  *0x2e52(%rip)        # 3fe0 <__libc_start_main@GLIBC_2.2.5>
    118e:	f4                   	hlt    
    118f:	90                   	nop

0000000000001190 <deregister_tm_clones>:
    1190:	48 8d 3d 79 2e 00 00 	lea    0x2e79(%rip),%rdi        # 4010 <__TMC_END__>
    1197:	48 8d 05 72 2e 00 00 	lea    0x2e72(%rip),%rax        # 4010 <__TMC_END__>
    119e:	48 39 f8             	cmp    %rdi,%rax
    11a1:	74 15                	je     11b8 <deregister_tm_clones+0x28>
    11a3:	48 8b 05 2e 2e 00 00 	mov    0x2e2e(%rip),%rax        # 3fd8 <_ITM_deregisterTMCloneTable>
    11aa:	48 85 c0             	test   %rax,%rax
    11ad:	74 09                	je     11b8 <deregister_tm_clones+0x28>
    11af:	ff e0                	jmpq   *%rax
    11b1:	0f 1f 80 00 00 00 00 	nopl   0x0(%rax)
    11b8:	c3                   	retq   
    11b9:	0f 1f 80 00 00 00 00 	nopl   0x0(%rax)

00000000000011c0 <register_tm_clones>:
    11c0:	48 8d 3d 49 2e 00 00 	lea    0x2e49(%rip),%rdi        # 4010 <__TMC_END__>
    11c7:	48 8d 35 42 2e 00 00 	lea    0x2e42(%rip),%rsi        # 4010 <__TMC_END__>
    11ce:	48 29 fe             	sub    %rdi,%rsi
    11d1:	48 89 f0             	mov    %rsi,%rax
    11d4:	48 c1 ee 3f          	shr    $0x3f,%rsi
    11d8:	48 c1 f8 03          	sar    $0x3,%rax
    11dc:	48 01 c6             	add    %rax,%rsi
    11df:	48 d1 fe             	sar    %rsi
    11e2:	74 14                	je     11f8 <register_tm_clones+0x38>
    11e4:	48 8b 05 05 2e 00 00 	mov    0x2e05(%rip),%rax        # 3ff0 <_ITM_registerTMCloneTable>
    11eb:	48 85 c0             	test   %rax,%rax
    11ee:	74 08                	je     11f8 <register_tm_clones+0x38>
    11f0:	ff e0                	jmpq   *%rax
    11f2:	66 0f 1f 44 00 00    	nopw   0x0(%rax,%rax,1)
    11f8:	c3                   	retq   
    11f9:	0f 1f 80 00 00 00 00 	nopl   0x0(%rax)

0000000000001200 <__do_global_dtors_aux>:
    1200:	f3 0f 1e fa          	endbr64 
    1204:	80 3d 6d 30 00 00 00 	cmpb   $0x0,0x306d(%rip)        # 4278 <completed.8061>
    120b:	75 2b                	jne    1238 <__do_global_dtors_aux+0x38>
    120d:	55                   	push   %rbp
    120e:	48 83 3d b2 2d 00 00 	cmpq   $0x0,0x2db2(%rip)        # 3fc8 <__cxa_finalize@GLIBC_2.2.5>
    1215:	00 
    1216:	48 89 e5             	mov    %rsp,%rbp
    1219:	74 0c                	je     1227 <__do_global_dtors_aux+0x27>
    121b:	48 8b 3d e6 2d 00 00 	mov    0x2de6(%rip),%rdi        # 4008 <__dso_handle>
    1222:	e8 99 fe ff ff       	callq  10c0 <__cxa_finalize@plt>
    1227:	e8 64 ff ff ff       	callq  1190 <deregister_tm_clones>
    122c:	c6 05 45 30 00 00 01 	movb   $0x1,0x3045(%rip)        # 4278 <completed.8061>
    1233:	5d                   	pop    %rbp
    1234:	c3                   	retq   
    1235:	0f 1f 00             	nopl   (%rax)
    1238:	c3                   	retq   
    1239:	0f 1f 80 00 00 00 00 	nopl   0x0(%rax)

0000000000001240 <frame_dummy>:
    1240:	f3 0f 1e fa          	endbr64 
    1244:	e9 77 ff ff ff       	jmpq   11c0 <register_tm_clones>

0000000000001249 <main>:
    1249:	f3 0f 1e fa          	endbr64 
    124d:	55                   	push   %rbp
    124e:	48 89 e5             	mov    %rsp,%rbp
    1251:	48 83 ec 20          	sub    $0x20,%rsp
    1255:	64 48 8b 04 25 28 00 	mov    %fs:0x28,%rax
    125c:	00 00 
    125e:	48 89 45 f8          	mov    %rax,-0x8(%rbp)
    1262:	31 c0                	xor    %eax,%eax
    1264:	bf 00 00 00 00       	mov    $0x0,%edi
    1269:	e8 62 fe ff ff       	callq  10d0 <_ZNSt8ios_base15sync_with_stdioEb@plt>
    126e:	be 00 00 00 00       	mov    $0x0,%esi
    1273:	48 8d 3d f6 2e 00 00 	lea    0x2ef6(%rip),%rdi        # 4170 <_ZSt3cin@@GLIBCXX_3.4+0x10>
    127a:	e8 71 fe ff ff       	callq  10f0 <_ZNSt9basic_iosIcSt11char_traitsIcEE3tieEPSo@plt>
    127f:	c7 45 e0 01 00 00 00 	movl   $0x1,-0x20(%rbp)
    1286:	48 8d 45 e0          	lea    -0x20(%rbp),%rax
    128a:	48 89 c6             	mov    %rax,%rsi
    128d:	48 8d 3d cc 2e 00 00 	lea    0x2ecc(%rip),%rdi        # 4160 <_ZSt3cin@@GLIBCXX_3.4>
    1294:	e8 47 fe ff ff       	callq  10e0 <_ZNSirsERi@plt>
    1299:	8b 45 e0             	mov    -0x20(%rbp),%eax
    129c:	8d 50 ff             	lea    -0x1(%rax),%edx
    129f:	89 55 e0             	mov    %edx,-0x20(%rbp)
    12a2:	85 c0                	test   %eax,%eax
    12a4:	0f 95 c0             	setne  %al
    12a7:	84 c0                	test   %al,%al
    12a9:	0f 84 17 01 00 00    	je     13c6 <main+0x17d>
    12af:	48 8d 35 da 2f 00 00 	lea    0x2fda(%rip),%rsi        # 4290 <n>
    12b6:	48 8d 3d a3 2e 00 00 	lea    0x2ea3(%rip),%rdi        # 4160 <_ZSt3cin@@GLIBCXX_3.4>
    12bd:	e8 7e fe ff ff       	callq  1140 <_ZNSirsERx@plt>
    12c2:	c7 45 e4 00 00 00 00 	movl   $0x0,-0x1c(%rbp)
    12c9:	c7 45 e8 00 00 00 00 	movl   $0x0,-0x18(%rbp)
    12d0:	c7 45 ec 00 00 00 00 	movl   $0x0,-0x14(%rbp)
    12d7:	c7 45 f4 00 00 00 00 	movl   $0x0,-0xc(%rbp)
    12de:	8b 45 f4             	mov    -0xc(%rbp),%eax
    12e1:	48 63 d0             	movslq %eax,%rdx
    12e4:	48 8b 05 a5 2f 00 00 	mov    0x2fa5(%rip),%rax        # 4290 <n>
    12eb:	48 39 c2             	cmp    %rax,%rdx
    12ee:	0f 8d 9e 00 00 00    	jge    1392 <main+0x149>
    12f4:	48 8d 35 8d 2f 00 00 	lea    0x2f8d(%rip),%rsi        # 4288 <m>
    12fb:	48 8d 3d 5e 2e 00 00 	lea    0x2e5e(%rip),%rdi        # 4160 <_ZSt3cin@@GLIBCXX_3.4>
    1302:	e8 39 fe ff ff       	callq  1140 <_ZNSirsERx@plt>
    1307:	83 7d f4 00          	cmpl   $0x0,-0xc(%rbp)
    130b:	75 0c                	jne    1319 <main+0xd0>
    130d:	48 8b 05 74 2f 00 00 	mov    0x2f74(%rip),%rax        # 4288 <m>
    1314:	89 45 f0             	mov    %eax,-0x10(%rbp)
    1317:	eb 70                	jmp    1389 <main+0x140>
    1319:	8b 45 f0             	mov    -0x10(%rbp),%eax
    131c:	48 63 d0             	movslq %eax,%rdx
    131f:	48 8b 05 62 2f 00 00 	mov    0x2f62(%rip),%rax        # 4288 <m>
    1326:	48 39 c2             	cmp    %rax,%rdx
    1329:	7f 06                	jg     1331 <main+0xe8>
    132b:	83 45 e8 01          	addl   $0x1,-0x18(%rbp)
    132f:	eb 07                	jmp    1338 <main+0xef>
    1331:	c7 45 e8 00 00 00 00 	movl   $0x0,-0x18(%rbp)
    1338:	8b 45 f0             	mov    -0x10(%rbp),%eax
    133b:	48 63 d0             	movslq %eax,%rdx
    133e:	48 8b 05 43 2f 00 00 	mov    0x2f43(%rip),%rax        # 4288 <m>
    1345:	48 39 c2             	cmp    %rax,%rdx
    1348:	7c 06                	jl     1350 <main+0x107>
    134a:	83 45 ec 01          	addl   $0x1,-0x14(%rbp)
    134e:	eb 07                	jmp    1357 <main+0x10e>
    1350:	c7 45 ec 00 00 00 00 	movl   $0x0,-0x14(%rbp)
    1357:	83 7d e8 02          	cmpl   $0x2,-0x18(%rbp)
    135b:	74 06                	je     1363 <main+0x11a>
    135d:	83 7d ec 02          	cmpl   $0x2,-0x14(%rbp)
    1361:	75 1c                	jne    137f <main+0x136>
    1363:	c7 45 e4 01 00 00 00 	movl   $0x1,-0x1c(%rbp)
    136a:	48 8d 35 3f 0d 00 00 	lea    0xd3f(%rip),%rsi        # 20b0 <_ZNSt8__detailL19_S_invalid_state_idE+0x8>
    1371:	48 8d 3d c8 2c 00 00 	lea    0x2cc8(%rip),%rdi        # 4040 <_ZSt4cout@@GLIBCXX_3.4>
    1378:	e8 93 fd ff ff       	callq  1110 <_ZStlsISt11char_traitsIcEERSt13basic_ostreamIcT_ES5_PKc@plt>
    137d:	eb 13                	jmp    1392 <main+0x149>
    137f:	48 8b 05 02 2f 00 00 	mov    0x2f02(%rip),%rax        # 4288 <m>
    1386:	89 45 f0             	mov    %eax,-0x10(%rbp)
    1389:	83 45 f4 01          	addl   $0x1,-0xc(%rbp)
    138d:	e9 4c ff ff ff       	jmpq   12de <main+0x95>
    1392:	83 7d e4 00          	cmpl   $0x0,-0x1c(%rbp)
    1396:	75 13                	jne    13ab <main+0x162>
    1398:	48 8d 35 14 0d 00 00 	lea    0xd14(%rip),%rsi        # 20b3 <_ZNSt8__detailL19_S_invalid_state_idE+0xb>
    139f:	48 8d 3d 9a 2c 00 00 	lea    0x2c9a(%rip),%rdi        # 4040 <_ZSt4cout@@GLIBCXX_3.4>
    13a6:	e8 65 fd ff ff       	callq  1110 <_ZStlsISt11char_traitsIcEERSt13basic_ostreamIcT_ES5_PKc@plt>
    13ab:	48 8b 05 1e 2c 00 00 	mov    0x2c1e(%rip),%rax        # 3fd0 <_ZSt4endlIcSt11char_traitsIcEERSt13basic_ostreamIT_T0_ES6_@GLIBCXX_3.4>
    13b2:	48 89 c6             	mov    %rax,%rsi
    13b5:	48 8d 3d 84 2c 00 00 	lea    0x2c84(%rip),%rdi        # 4040 <_ZSt4cout@@GLIBCXX_3.4>
    13bc:	e8 5f fd ff ff       	callq  1120 <_ZNSolsEPFRSoS_E@plt>
    13c1:	e9 d3 fe ff ff       	jmpq   1299 <main+0x50>
    13c6:	b8 00 00 00 00       	mov    $0x0,%eax
    13cb:	48 8b 4d f8          	mov    -0x8(%rbp),%rcx
    13cf:	64 48 33 0c 25 28 00 	xor    %fs:0x28,%rcx
    13d6:	00 00 
    13d8:	74 05                	je     13df <main+0x196>
    13da:	e8 51 fd ff ff       	callq  1130 <__stack_chk_fail@plt>
    13df:	c9                   	leaveq 
    13e0:	c3                   	retq   

00000000000013e1 <_Z41__static_initialization_and_destruction_0ii>:
    13e1:	f3 0f 1e fa          	endbr64 
    13e5:	55                   	push   %rbp
    13e6:	48 89 e5             	mov    %rsp,%rbp
    13e9:	48 83 ec 10          	sub    $0x10,%rsp
    13ed:	89 7d fc             	mov    %edi,-0x4(%rbp)
    13f0:	89 75 f8             	mov    %esi,-0x8(%rbp)
    13f3:	83 7d fc 01          	cmpl   $0x1,-0x4(%rbp)
    13f7:	75 32                	jne    142b <_Z41__static_initialization_and_destruction_0ii+0x4a>
    13f9:	81 7d f8 ff ff 00 00 	cmpl   $0xffff,-0x8(%rbp)
    1400:	75 29                	jne    142b <_Z41__static_initialization_and_destruction_0ii+0x4a>
    1402:	48 8d 3d 97 2e 00 00 	lea    0x2e97(%rip),%rdi        # 42a0 <_ZStL8__ioinit>
    1409:	e8 42 fd ff ff       	callq  1150 <_ZNSt8ios_base4InitC1Ev@plt>
    140e:	48 8d 15 f3 2b 00 00 	lea    0x2bf3(%rip),%rdx        # 4008 <__dso_handle>
    1415:	48 8d 35 84 2e 00 00 	lea    0x2e84(%rip),%rsi        # 42a0 <_ZStL8__ioinit>
    141c:	48 8b 05 d5 2b 00 00 	mov    0x2bd5(%rip),%rax        # 3ff8 <_ZNSt8ios_base4InitD1Ev@GLIBCXX_3.4>
    1423:	48 89 c7             	mov    %rax,%rdi
    1426:	e8 d5 fc ff ff       	callq  1100 <__cxa_atexit@plt>
    142b:	90                   	nop
    142c:	c9                   	leaveq 
    142d:	c3                   	retq   

000000000000142e <_GLOBAL__sub_I_c>:
    142e:	f3 0f 1e fa          	endbr64 
    1432:	55                   	push   %rbp
    1433:	48 89 e5             	mov    %rsp,%rbp
    1436:	be ff ff 00 00       	mov    $0xffff,%esi
    143b:	bf 01 00 00 00       	mov    $0x1,%edi
    1440:	e8 9c ff ff ff       	callq  13e1 <_Z41__static_initialization_and_destruction_0ii>
    1445:	5d                   	pop    %rbp
    1446:	c3                   	retq   
    1447:	66 0f 1f 84 00 00 00 	nopw   0x0(%rax,%rax,1)
    144e:	00 00 

0000000000001450 <__libc_csu_init>:
    1450:	f3 0f 1e fa          	endbr64 
    1454:	41 57                	push   %r15
    1456:	4c 8d 3d f3 28 00 00 	lea    0x28f3(%rip),%r15        # 3d50 <__frame_dummy_init_array_entry>
    145d:	41 56                	push   %r14
    145f:	49 89 d6             	mov    %rdx,%r14
    1462:	41 55                	push   %r13
    1464:	49 89 f5             	mov    %rsi,%r13
    1467:	41 54                	push   %r12
    1469:	41 89 fc             	mov    %edi,%r12d
    146c:	55                   	push   %rbp
    146d:	48 8d 2d ec 28 00 00 	lea    0x28ec(%rip),%rbp        # 3d60 <__do_global_dtors_aux_fini_array_entry>
    1474:	53                   	push   %rbx
    1475:	4c 29 fd             	sub    %r15,%rbp
    1478:	48 83 ec 08          	sub    $0x8,%rsp
    147c:	e8 7f fb ff ff       	callq  1000 <_init>
    1481:	48 c1 fd 03          	sar    $0x3,%rbp
    1485:	74 1f                	je     14a6 <__libc_csu_init+0x56>
    1487:	31 db                	xor    %ebx,%ebx
    1489:	0f 1f 80 00 00 00 00 	nopl   0x0(%rax)
    1490:	4c 89 f2             	mov    %r14,%rdx
    1493:	4c 89 ee             	mov    %r13,%rsi
    1496:	44 89 e7             	mov    %r12d,%edi
    1499:	41 ff 14 df          	callq  *(%r15,%rbx,8)
    149d:	48 83 c3 01          	add    $0x1,%rbx
    14a1:	48 39 dd             	cmp    %rbx,%rbp
    14a4:	75 ea                	jne    1490 <__libc_csu_init+0x40>
    14a6:	48 83 c4 08          	add    $0x8,%rsp
    14aa:	5b                   	pop    %rbx
    14ab:	5d                   	pop    %rbp
    14ac:	41 5c                	pop    %r12
    14ae:	41 5d                	pop    %r13
    14b0:	41 5e                	pop    %r14
    14b2:	41 5f                	pop    %r15
    14b4:	c3                   	retq   
    14b5:	66 66 2e 0f 1f 84 00 	data16 nopw %cs:0x0(%rax,%rax,1)
    14bc:	00 00 00 00 

00000000000014c0 <__libc_csu_fini>:
    14c0:	f3 0f 1e fa          	endbr64 
    14c4:	c3                   	retq   

Disassembly of section .fini:

00000000000014c8 <_fini>:
    14c8:	f3 0f 1e fa          	endbr64 
    14cc:	48 83 ec 08          	sub    $0x8,%rsp
    14d0:	48 83 c4 08          	add    $0x8,%rsp
    14d4:	c3                   	retq   
