
4.out:     file format elf64-x86-64


Disassembly of section .init:

0000000000001000 <_init>:
    1000:	f3 0f 1e fa          	endbr64 
    1004:	48 83 ec 08          	sub    $0x8,%rsp
    1008:	48 8b 05 d9 2f 00 00 	mov    0x2fd9(%rip),%rax        # 3fe8 <__gmon_start__>
    100f:	48 85 c0             	test   %rax,%rax
    1012:	74 02                	je     1016 <_init+0x16>
    1014:	ff d0                	callq  *%rax
    1016:	48 83 c4 08          	add    $0x8,%rsp
    101a:	c3                   	retq   

Disassembly of section .plt:

0000000000001020 <.plt>:
    1020:	ff 35 3a 2f 00 00    	pushq  0x2f3a(%rip)        # 3f60 <_GLOBAL_OFFSET_TABLE_+0x8>
    1026:	f2 ff 25 3b 2f 00 00 	bnd jmpq *0x2f3b(%rip)        # 3f68 <_GLOBAL_OFFSET_TABLE_+0x10>
    102d:	0f 1f 00             	nopl   (%rax)
    1030:	f3 0f 1e fa          	endbr64 
    1034:	68 00 00 00 00       	pushq  $0x0
    1039:	f2 e9 e1 ff ff ff    	bnd jmpq 1020 <.plt>
    103f:	90                   	nop
    1040:	f3 0f 1e fa          	endbr64 
    1044:	68 01 00 00 00       	pushq  $0x1
    1049:	f2 e9 d1 ff ff ff    	bnd jmpq 1020 <.plt>
    104f:	90                   	nop
    1050:	f3 0f 1e fa          	endbr64 
    1054:	68 02 00 00 00       	pushq  $0x2
    1059:	f2 e9 c1 ff ff ff    	bnd jmpq 1020 <.plt>
    105f:	90                   	nop
    1060:	f3 0f 1e fa          	endbr64 
    1064:	68 03 00 00 00       	pushq  $0x3
    1069:	f2 e9 b1 ff ff ff    	bnd jmpq 1020 <.plt>
    106f:	90                   	nop
    1070:	f3 0f 1e fa          	endbr64 
    1074:	68 04 00 00 00       	pushq  $0x4
    1079:	f2 e9 a1 ff ff ff    	bnd jmpq 1020 <.plt>
    107f:	90                   	nop
    1080:	f3 0f 1e fa          	endbr64 
    1084:	68 05 00 00 00       	pushq  $0x5
    1089:	f2 e9 91 ff ff ff    	bnd jmpq 1020 <.plt>
    108f:	90                   	nop
    1090:	f3 0f 1e fa          	endbr64 
    1094:	68 06 00 00 00       	pushq  $0x6
    1099:	f2 e9 81 ff ff ff    	bnd jmpq 1020 <.plt>
    109f:	90                   	nop
    10a0:	f3 0f 1e fa          	endbr64 
    10a4:	68 07 00 00 00       	pushq  $0x7
    10a9:	f2 e9 71 ff ff ff    	bnd jmpq 1020 <.plt>
    10af:	90                   	nop
    10b0:	f3 0f 1e fa          	endbr64 
    10b4:	68 08 00 00 00       	pushq  $0x8
    10b9:	f2 e9 61 ff ff ff    	bnd jmpq 1020 <.plt>
    10bf:	90                   	nop
    10c0:	f3 0f 1e fa          	endbr64 
    10c4:	68 09 00 00 00       	pushq  $0x9
    10c9:	f2 e9 51 ff ff ff    	bnd jmpq 1020 <.plt>
    10cf:	90                   	nop
    10d0:	f3 0f 1e fa          	endbr64 
    10d4:	68 0a 00 00 00       	pushq  $0xa
    10d9:	f2 e9 41 ff ff ff    	bnd jmpq 1020 <.plt>
    10df:	90                   	nop

Disassembly of section .plt.got:

00000000000010e0 <__cxa_finalize@plt>:
    10e0:	f3 0f 1e fa          	endbr64 
    10e4:	f2 ff 25 dd 2e 00 00 	bnd jmpq *0x2edd(%rip)        # 3fc8 <__cxa_finalize@GLIBC_2.2.5>
    10eb:	0f 1f 44 00 00       	nopl   0x0(%rax,%rax,1)

Disassembly of section .plt.sec:

00000000000010f0 <_ZNSt8ios_base15sync_with_stdioEb@plt>:
    10f0:	f3 0f 1e fa          	endbr64 
    10f4:	f2 ff 25 75 2e 00 00 	bnd jmpq *0x2e75(%rip)        # 3f70 <_ZNSt8ios_base15sync_with_stdioEb@GLIBCXX_3.4>
    10fb:	0f 1f 44 00 00       	nopl   0x0(%rax,%rax,1)

0000000000001100 <_ZNSolsEx@plt>:
    1100:	f3 0f 1e fa          	endbr64 
    1104:	f2 ff 25 6d 2e 00 00 	bnd jmpq *0x2e6d(%rip)        # 3f78 <_ZNSolsEx@GLIBCXX_3.4>
    110b:	0f 1f 44 00 00       	nopl   0x0(%rax,%rax,1)

0000000000001110 <_ZNSirsERi@plt>:
    1110:	f3 0f 1e fa          	endbr64 
    1114:	f2 ff 25 65 2e 00 00 	bnd jmpq *0x2e65(%rip)        # 3f80 <_ZNSirsERi@GLIBCXX_3.4>
    111b:	0f 1f 44 00 00       	nopl   0x0(%rax,%rax,1)

0000000000001120 <_ZNSt9basic_iosIcSt11char_traitsIcEE3tieEPSo@plt>:
    1120:	f3 0f 1e fa          	endbr64 
    1124:	f2 ff 25 5d 2e 00 00 	bnd jmpq *0x2e5d(%rip)        # 3f88 <_ZNSt9basic_iosIcSt11char_traitsIcEE3tieEPSo@GLIBCXX_3.4>
    112b:	0f 1f 44 00 00       	nopl   0x0(%rax,%rax,1)

0000000000001130 <__cxa_atexit@plt>:
    1130:	f3 0f 1e fa          	endbr64 
    1134:	f2 ff 25 55 2e 00 00 	bnd jmpq *0x2e55(%rip)        # 3f90 <__cxa_atexit@GLIBC_2.2.5>
    113b:	0f 1f 44 00 00       	nopl   0x0(%rax,%rax,1)

0000000000001140 <_ZStlsISt11char_traitsIcEERSt13basic_ostreamIcT_ES5_PKc@plt>:
    1140:	f3 0f 1e fa          	endbr64 
    1144:	f2 ff 25 4d 2e 00 00 	bnd jmpq *0x2e4d(%rip)        # 3f98 <_ZStlsISt11char_traitsIcEERSt13basic_ostreamIcT_ES5_PKc@GLIBCXX_3.4>
    114b:	0f 1f 44 00 00       	nopl   0x0(%rax,%rax,1)

0000000000001150 <_ZNSolsEPFRSoS_E@plt>:
    1150:	f3 0f 1e fa          	endbr64 
    1154:	f2 ff 25 45 2e 00 00 	bnd jmpq *0x2e45(%rip)        # 3fa0 <_ZNSolsEPFRSoS_E@GLIBCXX_3.4>
    115b:	0f 1f 44 00 00       	nopl   0x0(%rax,%rax,1)

0000000000001160 <__stack_chk_fail@plt>:
    1160:	f3 0f 1e fa          	endbr64 
    1164:	f2 ff 25 3d 2e 00 00 	bnd jmpq *0x2e3d(%rip)        # 3fa8 <__stack_chk_fail@GLIBC_2.4>
    116b:	0f 1f 44 00 00       	nopl   0x0(%rax,%rax,1)

0000000000001170 <_ZNSirsERx@plt>:
    1170:	f3 0f 1e fa          	endbr64 
    1174:	f2 ff 25 35 2e 00 00 	bnd jmpq *0x2e35(%rip)        # 3fb0 <_ZNSirsERx@GLIBCXX_3.4>
    117b:	0f 1f 44 00 00       	nopl   0x0(%rax,%rax,1)

0000000000001180 <_ZNSt8ios_base4InitC1Ev@plt>:
    1180:	f3 0f 1e fa          	endbr64 
    1184:	f2 ff 25 2d 2e 00 00 	bnd jmpq *0x2e2d(%rip)        # 3fb8 <_ZNSt8ios_base4InitC1Ev@GLIBCXX_3.4>
    118b:	0f 1f 44 00 00       	nopl   0x0(%rax,%rax,1)

0000000000001190 <_ZNSolsEi@plt>:
    1190:	f3 0f 1e fa          	endbr64 
    1194:	f2 ff 25 25 2e 00 00 	bnd jmpq *0x2e25(%rip)        # 3fc0 <_ZNSolsEi@GLIBCXX_3.4>
    119b:	0f 1f 44 00 00       	nopl   0x0(%rax,%rax,1)

Disassembly of section .text:

00000000000011a0 <_start>:
    11a0:	f3 0f 1e fa          	endbr64 
    11a4:	31 ed                	xor    %ebp,%ebp
    11a6:	49 89 d1             	mov    %rdx,%r9
    11a9:	5e                   	pop    %rsi
    11aa:	48 89 e2             	mov    %rsp,%rdx
    11ad:	48 83 e4 f0          	and    $0xfffffffffffffff0,%rsp
    11b1:	50                   	push   %rax
    11b2:	54                   	push   %rsp
    11b3:	4c 8d 05 c6 03 00 00 	lea    0x3c6(%rip),%r8        # 1580 <__libc_csu_fini>
    11ba:	48 8d 0d 4f 03 00 00 	lea    0x34f(%rip),%rcx        # 1510 <__libc_csu_init>
    11c1:	48 8d 3d 88 01 00 00 	lea    0x188(%rip),%rdi        # 1350 <main>
    11c8:	ff 15 12 2e 00 00    	callq  *0x2e12(%rip)        # 3fe0 <__libc_start_main@GLIBC_2.2.5>
    11ce:	f4                   	hlt    
    11cf:	90                   	nop

00000000000011d0 <deregister_tm_clones>:
    11d0:	48 8d 3d 39 2e 00 00 	lea    0x2e39(%rip),%rdi        # 4010 <__TMC_END__>
    11d7:	48 8d 05 32 2e 00 00 	lea    0x2e32(%rip),%rax        # 4010 <__TMC_END__>
    11de:	48 39 f8             	cmp    %rdi,%rax
    11e1:	74 15                	je     11f8 <deregister_tm_clones+0x28>
    11e3:	48 8b 05 ee 2d 00 00 	mov    0x2dee(%rip),%rax        # 3fd8 <_ITM_deregisterTMCloneTable>
    11ea:	48 85 c0             	test   %rax,%rax
    11ed:	74 09                	je     11f8 <deregister_tm_clones+0x28>
    11ef:	ff e0                	jmpq   *%rax
    11f1:	0f 1f 80 00 00 00 00 	nopl   0x0(%rax)
    11f8:	c3                   	retq   
    11f9:	0f 1f 80 00 00 00 00 	nopl   0x0(%rax)

0000000000001200 <register_tm_clones>:
    1200:	48 8d 3d 09 2e 00 00 	lea    0x2e09(%rip),%rdi        # 4010 <__TMC_END__>
    1207:	48 8d 35 02 2e 00 00 	lea    0x2e02(%rip),%rsi        # 4010 <__TMC_END__>
    120e:	48 29 fe             	sub    %rdi,%rsi
    1211:	48 89 f0             	mov    %rsi,%rax
    1214:	48 c1 ee 3f          	shr    $0x3f,%rsi
    1218:	48 c1 f8 03          	sar    $0x3,%rax
    121c:	48 01 c6             	add    %rax,%rsi
    121f:	48 d1 fe             	sar    %rsi
    1222:	74 14                	je     1238 <register_tm_clones+0x38>
    1224:	48 8b 05 c5 2d 00 00 	mov    0x2dc5(%rip),%rax        # 3ff0 <_ITM_registerTMCloneTable>
    122b:	48 85 c0             	test   %rax,%rax
    122e:	74 08                	je     1238 <register_tm_clones+0x38>
    1230:	ff e0                	jmpq   *%rax
    1232:	66 0f 1f 44 00 00    	nopw   0x0(%rax,%rax,1)
    1238:	c3                   	retq   
    1239:	0f 1f 80 00 00 00 00 	nopl   0x0(%rax)

0000000000001240 <__do_global_dtors_aux>:
    1240:	f3 0f 1e fa          	endbr64 
    1244:	80 3d 2d 30 00 00 00 	cmpb   $0x0,0x302d(%rip)        # 4278 <completed.8061>
    124b:	75 2b                	jne    1278 <__do_global_dtors_aux+0x38>
    124d:	55                   	push   %rbp
    124e:	48 83 3d 72 2d 00 00 	cmpq   $0x0,0x2d72(%rip)        # 3fc8 <__cxa_finalize@GLIBC_2.2.5>
    1255:	00 
    1256:	48 89 e5             	mov    %rsp,%rbp
    1259:	74 0c                	je     1267 <__do_global_dtors_aux+0x27>
    125b:	48 8b 3d a6 2d 00 00 	mov    0x2da6(%rip),%rdi        # 4008 <__dso_handle>
    1262:	e8 79 fe ff ff       	callq  10e0 <__cxa_finalize@plt>
    1267:	e8 64 ff ff ff       	callq  11d0 <deregister_tm_clones>
    126c:	c6 05 05 30 00 00 01 	movb   $0x1,0x3005(%rip)        # 4278 <completed.8061>
    1273:	5d                   	pop    %rbp
    1274:	c3                   	retq   
    1275:	0f 1f 00             	nopl   (%rax)
    1278:	c3                   	retq   
    1279:	0f 1f 80 00 00 00 00 	nopl   0x0(%rax)

0000000000001280 <frame_dummy>:
    1280:	f3 0f 1e fa          	endbr64 
    1284:	e9 77 ff ff ff       	jmpq   1200 <register_tm_clones>

0000000000001289 <_Z5checkx>:
    1289:	f3 0f 1e fa          	endbr64 
    128d:	55                   	push   %rbp
    128e:	48 89 e5             	mov    %rsp,%rbp
    1291:	48 89 7d d8          	mov    %rdi,-0x28(%rbp)
    1295:	48 c7 45 f0 00 00 00 	movq   $0x0,-0x10(%rbp)
    129c:	00 
    129d:	48 c7 45 f8 01 00 00 	movq   $0x1,-0x8(%rbp)
    12a4:	00 
    12a5:	48 83 7d d8 00       	cmpq   $0x0,-0x28(%rbp)
    12aa:	0f 8e 80 00 00 00    	jle    1330 <_Z5checkx+0xa7>
    12b0:	48 8b 4d d8          	mov    -0x28(%rbp),%rcx
    12b4:	48 ba 67 66 66 66 66 	movabs $0x6666666666666667,%rdx
    12bb:	66 66 66 
    12be:	48 89 c8             	mov    %rcx,%rax
    12c1:	48 f7 ea             	imul   %rdx
    12c4:	48 c1 fa 02          	sar    $0x2,%rdx
    12c8:	48 89 c8             	mov    %rcx,%rax
    12cb:	48 c1 f8 3f          	sar    $0x3f,%rax
    12cf:	48 29 c2             	sub    %rax,%rdx
    12d2:	48 89 d0             	mov    %rdx,%rax
    12d5:	48 c1 e0 02          	shl    $0x2,%rax
    12d9:	48 01 d0             	add    %rdx,%rax
    12dc:	48 01 c0             	add    %rax,%rax
    12df:	48 29 c1             	sub    %rax,%rcx
    12e2:	48 89 ca             	mov    %rcx,%rdx
    12e5:	89 55 ec             	mov    %edx,-0x14(%rbp)
    12e8:	8b 45 ec             	mov    -0x14(%rbp),%eax
    12eb:	48 98                	cltq   
    12ed:	48 8b 55 f8          	mov    -0x8(%rbp),%rdx
    12f1:	48 0f af c2          	imul   %rdx,%rax
    12f5:	48 89 45 f8          	mov    %rax,-0x8(%rbp)
    12f9:	8b 45 ec             	mov    -0x14(%rbp),%eax
    12fc:	48 98                	cltq   
    12fe:	48 01 45 f0          	add    %rax,-0x10(%rbp)
    1302:	48 8b 4d d8          	mov    -0x28(%rbp),%rcx
    1306:	48 ba 67 66 66 66 66 	movabs $0x6666666666666667,%rdx
    130d:	66 66 66 
    1310:	48 89 c8             	mov    %rcx,%rax
    1313:	48 f7 ea             	imul   %rdx
    1316:	48 c1 fa 02          	sar    $0x2,%rdx
    131a:	48 89 c8             	mov    %rcx,%rax
    131d:	48 c1 f8 3f          	sar    $0x3f,%rax
    1321:	48 29 c2             	sub    %rax,%rdx
    1324:	48 89 d0             	mov    %rdx,%rax
    1327:	48 89 45 d8          	mov    %rax,-0x28(%rbp)
    132b:	e9 75 ff ff ff       	jmpq   12a5 <_Z5checkx+0x1c>
    1330:	48 8b 45 f8          	mov    -0x8(%rbp),%rax
    1334:	48 99                	cqto   
    1336:	48 f7 7d f0          	idivq  -0x10(%rbp)
    133a:	48 89 d0             	mov    %rdx,%rax
    133d:	48 85 c0             	test   %rax,%rax
    1340:	75 07                	jne    1349 <_Z5checkx+0xc0>
    1342:	b8 01 00 00 00       	mov    $0x1,%eax
    1347:	eb 05                	jmp    134e <_Z5checkx+0xc5>
    1349:	b8 00 00 00 00       	mov    $0x0,%eax
    134e:	5d                   	pop    %rbp
    134f:	c3                   	retq   

0000000000001350 <main>:
    1350:	f3 0f 1e fa          	endbr64 
    1354:	55                   	push   %rbp
    1355:	48 89 e5             	mov    %rsp,%rbp
    1358:	48 83 ec 30          	sub    $0x30,%rsp
    135c:	64 48 8b 04 25 28 00 	mov    %fs:0x28,%rax
    1363:	00 00 
    1365:	48 89 45 f8          	mov    %rax,-0x8(%rbp)
    1369:	31 c0                	xor    %eax,%eax
    136b:	bf 00 00 00 00       	mov    $0x0,%edi
    1370:	e8 7b fd ff ff       	callq  10f0 <_ZNSt8ios_base15sync_with_stdioEb@plt>
    1375:	be 00 00 00 00       	mov    $0x0,%esi
    137a:	48 8d 3d ef 2d 00 00 	lea    0x2def(%rip),%rdi        # 4170 <_ZSt3cin@@GLIBCXX_3.4+0x10>
    1381:	e8 9a fd ff ff       	callq  1120 <_ZNSt9basic_iosIcSt11char_traitsIcEE3tieEPSo@plt>
    1386:	c7 45 d0 01 00 00 00 	movl   $0x1,-0x30(%rbp)
    138d:	48 8d 45 d0          	lea    -0x30(%rbp),%rax
    1391:	48 89 c6             	mov    %rax,%rsi
    1394:	48 8d 3d c5 2d 00 00 	lea    0x2dc5(%rip),%rdi        # 4160 <_ZSt3cin@@GLIBCXX_3.4>
    139b:	e8 70 fd ff ff       	callq  1110 <_ZNSirsERi@plt>
    13a0:	c7 45 d4 01 00 00 00 	movl   $0x1,-0x2c(%rbp)
    13a7:	8b 45 d0             	mov    -0x30(%rbp),%eax
    13aa:	39 45 d4             	cmp    %eax,-0x2c(%rbp)
    13ad:	0f 8f bf 00 00 00    	jg     1472 <main+0x122>
    13b3:	48 8d 35 f6 0c 00 00 	lea    0xcf6(%rip),%rsi        # 20b0 <_ZNSt8__detailL19_S_invalid_state_idE+0x8>
    13ba:	48 8d 3d 7f 2c 00 00 	lea    0x2c7f(%rip),%rdi        # 4040 <_ZSt4cout@@GLIBCXX_3.4>
    13c1:	e8 7a fd ff ff       	callq  1140 <_ZStlsISt11char_traitsIcEERSt13basic_ostreamIcT_ES5_PKc@plt>
    13c6:	48 89 c2             	mov    %rax,%rdx
    13c9:	8b 45 d4             	mov    -0x2c(%rbp),%eax
    13cc:	89 c6                	mov    %eax,%esi
    13ce:	48 89 d7             	mov    %rdx,%rdi
    13d1:	e8 ba fd ff ff       	callq  1190 <_ZNSolsEi@plt>
    13d6:	48 8d 35 da 0c 00 00 	lea    0xcda(%rip),%rsi        # 20b7 <_ZNSt8__detailL19_S_invalid_state_idE+0xf>
    13dd:	48 89 c7             	mov    %rax,%rdi
    13e0:	e8 5b fd ff ff       	callq  1140 <_ZStlsISt11char_traitsIcEERSt13basic_ostreamIcT_ES5_PKc@plt>
    13e5:	48 8d 45 d8          	lea    -0x28(%rbp),%rax
    13e9:	48 89 c6             	mov    %rax,%rsi
    13ec:	48 8d 3d 6d 2d 00 00 	lea    0x2d6d(%rip),%rdi        # 4160 <_ZSt3cin@@GLIBCXX_3.4>
    13f3:	e8 78 fd ff ff       	callq  1170 <_ZNSirsERx@plt>
    13f8:	48 89 c2             	mov    %rax,%rdx
    13fb:	48 8d 45 e0          	lea    -0x20(%rbp),%rax
    13ff:	48 89 c6             	mov    %rax,%rsi
    1402:	48 89 d7             	mov    %rdx,%rdi
    1405:	e8 66 fd ff ff       	callq  1170 <_ZNSirsERx@plt>
    140a:	48 c7 45 e8 00 00 00 	movq   $0x0,-0x18(%rbp)
    1411:	00 
    1412:	48 8b 45 d8          	mov    -0x28(%rbp),%rax
    1416:	48 89 45 f0          	mov    %rax,-0x10(%rbp)
    141a:	48 8b 45 e0          	mov    -0x20(%rbp),%rax
    141e:	48 39 45 f0          	cmp    %rax,-0x10(%rbp)
    1422:	7f 1c                	jg     1440 <main+0xf0>
    1424:	48 8b 45 f0          	mov    -0x10(%rbp),%rax
    1428:	48 89 c7             	mov    %rax,%rdi
    142b:	e8 59 fe ff ff       	callq  1289 <_Z5checkx>
    1430:	84 c0                	test   %al,%al
    1432:	74 05                	je     1439 <main+0xe9>
    1434:	48 83 45 e8 01       	addq   $0x1,-0x18(%rbp)
    1439:	48 83 45 f0 01       	addq   $0x1,-0x10(%rbp)
    143e:	eb da                	jmp    141a <main+0xca>
    1440:	48 8b 45 e8          	mov    -0x18(%rbp),%rax
    1444:	48 89 c6             	mov    %rax,%rsi
    1447:	48 8d 3d f2 2b 00 00 	lea    0x2bf2(%rip),%rdi        # 4040 <_ZSt4cout@@GLIBCXX_3.4>
    144e:	e8 ad fc ff ff       	callq  1100 <_ZNSolsEx@plt>
    1453:	48 8b 05 76 2b 00 00 	mov    0x2b76(%rip),%rax        # 3fd0 <_ZSt4endlIcSt11char_traitsIcEERSt13basic_ostreamIT_T0_ES6_@GLIBCXX_3.4>
    145a:	48 89 c6             	mov    %rax,%rsi
    145d:	48 8d 3d dc 2b 00 00 	lea    0x2bdc(%rip),%rdi        # 4040 <_ZSt4cout@@GLIBCXX_3.4>
    1464:	e8 e7 fc ff ff       	callq  1150 <_ZNSolsEPFRSoS_E@plt>
    1469:	83 45 d4 01          	addl   $0x1,-0x2c(%rbp)
    146d:	e9 35 ff ff ff       	jmpq   13a7 <main+0x57>
    1472:	be 04 00 00 00       	mov    $0x4,%esi
    1477:	48 8d 3d c2 2b 00 00 	lea    0x2bc2(%rip),%rdi        # 4040 <_ZSt4cout@@GLIBCXX_3.4>
    147e:	e8 0d fd ff ff       	callq  1190 <_ZNSolsEi@plt>
    1483:	b8 00 00 00 00       	mov    $0x0,%eax
    1488:	48 8b 4d f8          	mov    -0x8(%rbp),%rcx
    148c:	64 48 33 0c 25 28 00 	xor    %fs:0x28,%rcx
    1493:	00 00 
    1495:	74 05                	je     149c <main+0x14c>
    1497:	e8 c4 fc ff ff       	callq  1160 <__stack_chk_fail@plt>
    149c:	c9                   	leaveq 
    149d:	c3                   	retq   

000000000000149e <_Z41__static_initialization_and_destruction_0ii>:
    149e:	f3 0f 1e fa          	endbr64 
    14a2:	55                   	push   %rbp
    14a3:	48 89 e5             	mov    %rsp,%rbp
    14a6:	48 83 ec 10          	sub    $0x10,%rsp
    14aa:	89 7d fc             	mov    %edi,-0x4(%rbp)
    14ad:	89 75 f8             	mov    %esi,-0x8(%rbp)
    14b0:	83 7d fc 01          	cmpl   $0x1,-0x4(%rbp)
    14b4:	75 32                	jne    14e8 <_Z41__static_initialization_and_destruction_0ii+0x4a>
    14b6:	81 7d f8 ff ff 00 00 	cmpl   $0xffff,-0x8(%rbp)
    14bd:	75 29                	jne    14e8 <_Z41__static_initialization_and_destruction_0ii+0x4a>
    14bf:	48 8d 3d c6 2d 00 00 	lea    0x2dc6(%rip),%rdi        # 428c <_ZStL8__ioinit>
    14c6:	e8 b5 fc ff ff       	callq  1180 <_ZNSt8ios_base4InitC1Ev@plt>
    14cb:	48 8d 15 36 2b 00 00 	lea    0x2b36(%rip),%rdx        # 4008 <__dso_handle>
    14d2:	48 8d 35 b3 2d 00 00 	lea    0x2db3(%rip),%rsi        # 428c <_ZStL8__ioinit>
    14d9:	48 8b 05 18 2b 00 00 	mov    0x2b18(%rip),%rax        # 3ff8 <_ZNSt8ios_base4InitD1Ev@GLIBCXX_3.4>
    14e0:	48 89 c7             	mov    %rax,%rdi
    14e3:	e8 48 fc ff ff       	callq  1130 <__cxa_atexit@plt>
    14e8:	90                   	nop
    14e9:	c9                   	leaveq 
    14ea:	c3                   	retq   

00000000000014eb <_GLOBAL__sub_I_c>:
    14eb:	f3 0f 1e fa          	endbr64 
    14ef:	55                   	push   %rbp
    14f0:	48 89 e5             	mov    %rsp,%rbp
    14f3:	be ff ff 00 00       	mov    $0xffff,%esi
    14f8:	bf 01 00 00 00       	mov    $0x1,%edi
    14fd:	e8 9c ff ff ff       	callq  149e <_Z41__static_initialization_and_destruction_0ii>
    1502:	5d                   	pop    %rbp
    1503:	c3                   	retq   
    1504:	66 2e 0f 1f 84 00 00 	nopw   %cs:0x0(%rax,%rax,1)
    150b:	00 00 00 
    150e:	66 90                	xchg   %ax,%ax

0000000000001510 <__libc_csu_init>:
    1510:	f3 0f 1e fa          	endbr64 
    1514:	41 57                	push   %r15
    1516:	4c 8d 3d 23 28 00 00 	lea    0x2823(%rip),%r15        # 3d40 <__frame_dummy_init_array_entry>
    151d:	41 56                	push   %r14
    151f:	49 89 d6             	mov    %rdx,%r14
    1522:	41 55                	push   %r13
    1524:	49 89 f5             	mov    %rsi,%r13
    1527:	41 54                	push   %r12
    1529:	41 89 fc             	mov    %edi,%r12d
    152c:	55                   	push   %rbp
    152d:	48 8d 2d 1c 28 00 00 	lea    0x281c(%rip),%rbp        # 3d50 <__do_global_dtors_aux_fini_array_entry>
    1534:	53                   	push   %rbx
    1535:	4c 29 fd             	sub    %r15,%rbp
    1538:	48 83 ec 08          	sub    $0x8,%rsp
    153c:	e8 bf fa ff ff       	callq  1000 <_init>
    1541:	48 c1 fd 03          	sar    $0x3,%rbp
    1545:	74 1f                	je     1566 <__libc_csu_init+0x56>
    1547:	31 db                	xor    %ebx,%ebx
    1549:	0f 1f 80 00 00 00 00 	nopl   0x0(%rax)
    1550:	4c 89 f2             	mov    %r14,%rdx
    1553:	4c 89 ee             	mov    %r13,%rsi
    1556:	44 89 e7             	mov    %r12d,%edi
    1559:	41 ff 14 df          	callq  *(%r15,%rbx,8)
    155d:	48 83 c3 01          	add    $0x1,%rbx
    1561:	48 39 dd             	cmp    %rbx,%rbp
    1564:	75 ea                	jne    1550 <__libc_csu_init+0x40>
    1566:	48 83 c4 08          	add    $0x8,%rsp
    156a:	5b                   	pop    %rbx
    156b:	5d                   	pop    %rbp
    156c:	41 5c                	pop    %r12
    156e:	41 5d                	pop    %r13
    1570:	41 5e                	pop    %r14
    1572:	41 5f                	pop    %r15
    1574:	c3                   	retq   
    1575:	66 66 2e 0f 1f 84 00 	data16 nopw %cs:0x0(%rax,%rax,1)
    157c:	00 00 00 00 

0000000000001580 <__libc_csu_fini>:
    1580:	f3 0f 1e fa          	endbr64 
    1584:	c3                   	retq   

Disassembly of section .fini:

0000000000001588 <_fini>:
    1588:	f3 0f 1e fa          	endbr64 
    158c:	48 83 ec 08          	sub    $0x8,%rsp
    1590:	48 83 c4 08          	add    $0x8,%rsp
    1594:	c3                   	retq   
