
5.out:     file format elf64-x86-64


Disassembly of section .init:

0000000000001000 <_init>:
    1000:	f3 0f 1e fa          	endbr64 
    1004:	48 83 ec 08          	sub    $0x8,%rsp
    1008:	48 8b 05 d9 5f 00 00 	mov    0x5fd9(%rip),%rax        # 6fe8 <__gmon_start__>
    100f:	48 85 c0             	test   %rax,%rax
    1012:	74 02                	je     1016 <_init+0x16>
    1014:	ff d0                	callq  *%rax
    1016:	48 83 c4 08          	add    $0x8,%rsp
    101a:	c3                   	retq   

Disassembly of section .plt:

0000000000001020 <.plt>:
    1020:	ff 35 22 5f 00 00    	pushq  0x5f22(%rip)        # 6f48 <_GLOBAL_OFFSET_TABLE_+0x8>
    1026:	f2 ff 25 23 5f 00 00 	bnd jmpq *0x5f23(%rip)        # 6f50 <_GLOBAL_OFFSET_TABLE_+0x10>
    102d:	0f 1f 00             	nopl   (%rax)
    1030:	f3 0f 1e fa          	endbr64 
    1034:	68 00 00 00 00       	pushq  $0x0
    1039:	f2 e9 e1 ff ff ff    	bnd jmpq 1020 <.plt>
    103f:	90                   	nop
    1040:	f3 0f 1e fa          	endbr64 
    1044:	68 01 00 00 00       	pushq  $0x1
    1049:	f2 e9 d1 ff ff ff    	bnd jmpq 1020 <.plt>
    104f:	90                   	nop
    1050:	f3 0f 1e fa          	endbr64 
    1054:	68 02 00 00 00       	pushq  $0x2
    1059:	f2 e9 c1 ff ff ff    	bnd jmpq 1020 <.plt>
    105f:	90                   	nop
    1060:	f3 0f 1e fa          	endbr64 
    1064:	68 03 00 00 00       	pushq  $0x3
    1069:	f2 e9 b1 ff ff ff    	bnd jmpq 1020 <.plt>
    106f:	90                   	nop
    1070:	f3 0f 1e fa          	endbr64 
    1074:	68 04 00 00 00       	pushq  $0x4
    1079:	f2 e9 a1 ff ff ff    	bnd jmpq 1020 <.plt>
    107f:	90                   	nop
    1080:	f3 0f 1e fa          	endbr64 
    1084:	68 05 00 00 00       	pushq  $0x5
    1089:	f2 e9 91 ff ff ff    	bnd jmpq 1020 <.plt>
    108f:	90                   	nop
    1090:	f3 0f 1e fa          	endbr64 
    1094:	68 06 00 00 00       	pushq  $0x6
    1099:	f2 e9 81 ff ff ff    	bnd jmpq 1020 <.plt>
    109f:	90                   	nop
    10a0:	f3 0f 1e fa          	endbr64 
    10a4:	68 07 00 00 00       	pushq  $0x7
    10a9:	f2 e9 71 ff ff ff    	bnd jmpq 1020 <.plt>
    10af:	90                   	nop
    10b0:	f3 0f 1e fa          	endbr64 
    10b4:	68 08 00 00 00       	pushq  $0x8
    10b9:	f2 e9 61 ff ff ff    	bnd jmpq 1020 <.plt>
    10bf:	90                   	nop
    10c0:	f3 0f 1e fa          	endbr64 
    10c4:	68 09 00 00 00       	pushq  $0x9
    10c9:	f2 e9 51 ff ff ff    	bnd jmpq 1020 <.plt>
    10cf:	90                   	nop
    10d0:	f3 0f 1e fa          	endbr64 
    10d4:	68 0a 00 00 00       	pushq  $0xa
    10d9:	f2 e9 41 ff ff ff    	bnd jmpq 1020 <.plt>
    10df:	90                   	nop
    10e0:	f3 0f 1e fa          	endbr64 
    10e4:	68 0b 00 00 00       	pushq  $0xb
    10e9:	f2 e9 31 ff ff ff    	bnd jmpq 1020 <.plt>
    10ef:	90                   	nop
    10f0:	f3 0f 1e fa          	endbr64 
    10f4:	68 0c 00 00 00       	pushq  $0xc
    10f9:	f2 e9 21 ff ff ff    	bnd jmpq 1020 <.plt>
    10ff:	90                   	nop
    1100:	f3 0f 1e fa          	endbr64 
    1104:	68 0d 00 00 00       	pushq  $0xd
    1109:	f2 e9 11 ff ff ff    	bnd jmpq 1020 <.plt>
    110f:	90                   	nop
    1110:	f3 0f 1e fa          	endbr64 
    1114:	68 0e 00 00 00       	pushq  $0xe
    1119:	f2 e9 01 ff ff ff    	bnd jmpq 1020 <.plt>
    111f:	90                   	nop

Disassembly of section .plt.got:

0000000000001120 <__cxa_finalize@plt>:
    1120:	f3 0f 1e fa          	endbr64 
    1124:	f2 ff 25 a5 5e 00 00 	bnd jmpq *0x5ea5(%rip)        # 6fd0 <__cxa_finalize@GLIBC_2.2.5>
    112b:	0f 1f 44 00 00       	nopl   0x0(%rax,%rax,1)

Disassembly of section .plt.sec:

0000000000001130 <_ZSt17__throw_bad_allocv@plt>:
    1130:	f3 0f 1e fa          	endbr64 
    1134:	f2 ff 25 1d 5e 00 00 	bnd jmpq *0x5e1d(%rip)        # 6f58 <_ZSt17__throw_bad_allocv@GLIBCXX_3.4>
    113b:	0f 1f 44 00 00       	nopl   0x0(%rax,%rax,1)

0000000000001140 <__cxa_begin_catch@plt>:
    1140:	f3 0f 1e fa          	endbr64 
    1144:	f2 ff 25 15 5e 00 00 	bnd jmpq *0x5e15(%rip)        # 6f60 <__cxa_begin_catch@CXXABI_1.3>
    114b:	0f 1f 44 00 00       	nopl   0x0(%rax,%rax,1)

0000000000001150 <_ZNSt8ios_base15sync_with_stdioEb@plt>:
    1150:	f3 0f 1e fa          	endbr64 
    1154:	f2 ff 25 0d 5e 00 00 	bnd jmpq *0x5e0d(%rip)        # 6f68 <_ZNSt8ios_base15sync_with_stdioEb@GLIBCXX_3.4>
    115b:	0f 1f 44 00 00       	nopl   0x0(%rax,%rax,1)

0000000000001160 <_ZSt20__throw_length_errorPKc@plt>:
    1160:	f3 0f 1e fa          	endbr64 
    1164:	f2 ff 25 05 5e 00 00 	bnd jmpq *0x5e05(%rip)        # 6f70 <_ZSt20__throw_length_errorPKc@GLIBCXX_3.4>
    116b:	0f 1f 44 00 00       	nopl   0x0(%rax,%rax,1)

0000000000001170 <_ZNSt9basic_iosIcSt11char_traitsIcEE3tieEPSo@plt>:
    1170:	f3 0f 1e fa          	endbr64 
    1174:	f2 ff 25 fd 5d 00 00 	bnd jmpq *0x5dfd(%rip)        # 6f78 <_ZNSt9basic_iosIcSt11char_traitsIcEE3tieEPSo@GLIBCXX_3.4>
    117b:	0f 1f 44 00 00       	nopl   0x0(%rax,%rax,1)

0000000000001180 <__cxa_atexit@plt>:
    1180:	f3 0f 1e fa          	endbr64 
    1184:	f2 ff 25 f5 5d 00 00 	bnd jmpq *0x5df5(%rip)        # 6f80 <__cxa_atexit@GLIBC_2.2.5>
    118b:	0f 1f 44 00 00       	nopl   0x0(%rax,%rax,1)

0000000000001190 <_ZdlPv@plt>:
    1190:	f3 0f 1e fa          	endbr64 
    1194:	f2 ff 25 ed 5d 00 00 	bnd jmpq *0x5ded(%rip)        # 6f88 <_ZdlPv@GLIBCXX_3.4>
    119b:	0f 1f 44 00 00       	nopl   0x0(%rax,%rax,1)

00000000000011a0 <_Znwm@plt>:
    11a0:	f3 0f 1e fa          	endbr64 
    11a4:	f2 ff 25 e5 5d 00 00 	bnd jmpq *0x5de5(%rip)        # 6f90 <_Znwm@GLIBCXX_3.4>
    11ab:	0f 1f 44 00 00       	nopl   0x0(%rax,%rax,1)

00000000000011b0 <__stack_chk_fail@plt>:
    11b0:	f3 0f 1e fa          	endbr64 
    11b4:	f2 ff 25 dd 5d 00 00 	bnd jmpq *0x5ddd(%rip)        # 6f98 <__stack_chk_fail@GLIBC_2.4>
    11bb:	0f 1f 44 00 00       	nopl   0x0(%rax,%rax,1)

00000000000011c0 <_ZNSirsERx@plt>:
    11c0:	f3 0f 1e fa          	endbr64 
    11c4:	f2 ff 25 d5 5d 00 00 	bnd jmpq *0x5dd5(%rip)        # 6fa0 <_ZNSirsERx@GLIBCXX_3.4>
    11cb:	0f 1f 44 00 00       	nopl   0x0(%rax,%rax,1)

00000000000011d0 <__cxa_rethrow@plt>:
    11d0:	f3 0f 1e fa          	endbr64 
    11d4:	f2 ff 25 cd 5d 00 00 	bnd jmpq *0x5dcd(%rip)        # 6fa8 <__cxa_rethrow@CXXABI_1.3>
    11db:	0f 1f 44 00 00       	nopl   0x0(%rax,%rax,1)

00000000000011e0 <_ZNSt8ios_base4InitC1Ev@plt>:
    11e0:	f3 0f 1e fa          	endbr64 
    11e4:	f2 ff 25 c5 5d 00 00 	bnd jmpq *0x5dc5(%rip)        # 6fb0 <_ZNSt8ios_base4InitC1Ev@GLIBCXX_3.4>
    11eb:	0f 1f 44 00 00       	nopl   0x0(%rax,%rax,1)

00000000000011f0 <__cxa_end_catch@plt>:
    11f0:	f3 0f 1e fa          	endbr64 
    11f4:	f2 ff 25 bd 5d 00 00 	bnd jmpq *0x5dbd(%rip)        # 6fb8 <__cxa_end_catch@CXXABI_1.3>
    11fb:	0f 1f 44 00 00       	nopl   0x0(%rax,%rax,1)

0000000000001200 <_ZNSolsEi@plt>:
    1200:	f3 0f 1e fa          	endbr64 
    1204:	f2 ff 25 b5 5d 00 00 	bnd jmpq *0x5db5(%rip)        # 6fc0 <_ZNSolsEi@GLIBCXX_3.4>
    120b:	0f 1f 44 00 00       	nopl   0x0(%rax,%rax,1)

0000000000001210 <_Unwind_Resume@plt>:
    1210:	f3 0f 1e fa          	endbr64 
    1214:	f2 ff 25 ad 5d 00 00 	bnd jmpq *0x5dad(%rip)        # 6fc8 <_Unwind_Resume@GCC_3.0>
    121b:	0f 1f 44 00 00       	nopl   0x0(%rax,%rax,1)

Disassembly of section .text:

0000000000001220 <_start>:
    1220:	f3 0f 1e fa          	endbr64 
    1224:	31 ed                	xor    %ebp,%ebp
    1226:	49 89 d1             	mov    %rdx,%r9
    1229:	5e                   	pop    %rsi
    122a:	48 89 e2             	mov    %rsp,%rdx
    122d:	48 83 e4 f0          	and    $0xfffffffffffffff0,%rsp
    1231:	50                   	push   %rax
    1232:	54                   	push   %rsp
    1233:	4c 8d 05 d6 29 00 00 	lea    0x29d6(%rip),%r8        # 3c10 <__libc_csu_fini>
    123a:	48 8d 0d 5f 29 00 00 	lea    0x295f(%rip),%rcx        # 3ba0 <__libc_csu_init>
    1241:	48 8d 3d c1 00 00 00 	lea    0xc1(%rip),%rdi        # 1309 <main>
    1248:	ff 15 92 5d 00 00    	callq  *0x5d92(%rip)        # 6fe0 <__libc_start_main@GLIBC_2.2.5>
    124e:	f4                   	hlt    
    124f:	90                   	nop

0000000000001250 <deregister_tm_clones>:
    1250:	48 8d 3d c1 5d 00 00 	lea    0x5dc1(%rip),%rdi        # 7018 <__TMC_END__>
    1257:	48 8d 05 ba 5d 00 00 	lea    0x5dba(%rip),%rax        # 7018 <__TMC_END__>
    125e:	48 39 f8             	cmp    %rdi,%rax
    1261:	74 15                	je     1278 <deregister_tm_clones+0x28>
    1263:	48 8b 05 6e 5d 00 00 	mov    0x5d6e(%rip),%rax        # 6fd8 <_ITM_deregisterTMCloneTable>
    126a:	48 85 c0             	test   %rax,%rax
    126d:	74 09                	je     1278 <deregister_tm_clones+0x28>
    126f:	ff e0                	jmpq   *%rax
    1271:	0f 1f 80 00 00 00 00 	nopl   0x0(%rax)
    1278:	c3                   	retq   
    1279:	0f 1f 80 00 00 00 00 	nopl   0x0(%rax)

0000000000001280 <register_tm_clones>:
    1280:	48 8d 3d 91 5d 00 00 	lea    0x5d91(%rip),%rdi        # 7018 <__TMC_END__>
    1287:	48 8d 35 8a 5d 00 00 	lea    0x5d8a(%rip),%rsi        # 7018 <__TMC_END__>
    128e:	48 29 fe             	sub    %rdi,%rsi
    1291:	48 89 f0             	mov    %rsi,%rax
    1294:	48 c1 ee 3f          	shr    $0x3f,%rsi
    1298:	48 c1 f8 03          	sar    $0x3,%rax
    129c:	48 01 c6             	add    %rax,%rsi
    129f:	48 d1 fe             	sar    %rsi
    12a2:	74 14                	je     12b8 <register_tm_clones+0x38>
    12a4:	48 8b 05 45 5d 00 00 	mov    0x5d45(%rip),%rax        # 6ff0 <_ITM_registerTMCloneTable>
    12ab:	48 85 c0             	test   %rax,%rax
    12ae:	74 08                	je     12b8 <register_tm_clones+0x38>
    12b0:	ff e0                	jmpq   *%rax
    12b2:	66 0f 1f 44 00 00    	nopw   0x0(%rax,%rax,1)
    12b8:	c3                   	retq   
    12b9:	0f 1f 80 00 00 00 00 	nopl   0x0(%rax)

00000000000012c0 <__do_global_dtors_aux>:
    12c0:	f3 0f 1e fa          	endbr64 
    12c4:	80 3d ad 5f 00 00 00 	cmpb   $0x0,0x5fad(%rip)        # 7278 <completed.8061>
    12cb:	75 2b                	jne    12f8 <__do_global_dtors_aux+0x38>
    12cd:	55                   	push   %rbp
    12ce:	48 83 3d fa 5c 00 00 	cmpq   $0x0,0x5cfa(%rip)        # 6fd0 <__cxa_finalize@GLIBC_2.2.5>
    12d5:	00 
    12d6:	48 89 e5             	mov    %rsp,%rbp
    12d9:	74 0c                	je     12e7 <__do_global_dtors_aux+0x27>
    12db:	48 8b 3d 26 5d 00 00 	mov    0x5d26(%rip),%rdi        # 7008 <__dso_handle>
    12e2:	e8 39 fe ff ff       	callq  1120 <__cxa_finalize@plt>
    12e7:	e8 64 ff ff ff       	callq  1250 <deregister_tm_clones>
    12ec:	c6 05 85 5f 00 00 01 	movb   $0x1,0x5f85(%rip)        # 7278 <completed.8061>
    12f3:	5d                   	pop    %rbp
    12f4:	c3                   	retq   
    12f5:	0f 1f 00             	nopl   (%rax)
    12f8:	c3                   	retq   
    12f9:	0f 1f 80 00 00 00 00 	nopl   0x0(%rax)

0000000000001300 <frame_dummy>:
    1300:	f3 0f 1e fa          	endbr64 
    1304:	e9 77 ff ff ff       	jmpq   1280 <register_tm_clones>

0000000000001309 <main>:
    1309:	f3 0f 1e fa          	endbr64 
    130d:	55                   	push   %rbp
    130e:	48 89 e5             	mov    %rsp,%rbp
    1311:	53                   	push   %rbx
    1312:	48 83 ec 58          	sub    $0x58,%rsp
    1316:	64 48 8b 04 25 28 00 	mov    %fs:0x28,%rax
    131d:	00 00 
    131f:	48 89 45 e8          	mov    %rax,-0x18(%rbp)
    1323:	31 c0                	xor    %eax,%eax
    1325:	bf 00 00 00 00       	mov    $0x0,%edi
    132a:	e8 21 fe ff ff       	callq  1150 <_ZNSt8ios_base15sync_with_stdioEb@plt>
    132f:	be 00 00 00 00       	mov    $0x0,%esi
    1334:	48 8d 3d 35 5e 00 00 	lea    0x5e35(%rip),%rdi        # 7170 <_ZSt3cin@@GLIBCXX_3.4+0x10>
    133b:	e8 30 fe ff ff       	callq  1170 <_ZNSt9basic_iosIcSt11char_traitsIcEE3tieEPSo@plt>
    1340:	c7 45 a8 01 00 00 00 	movl   $0x1,-0x58(%rbp)
    1347:	8b 45 a8             	mov    -0x58(%rbp),%eax
    134a:	8d 50 ff             	lea    -0x1(%rax),%edx
    134d:	89 55 a8             	mov    %edx,-0x58(%rbp)
    1350:	85 c0                	test   %eax,%eax
    1352:	0f 95 c0             	setne  %al
    1355:	84 c0                	test   %al,%al
    1357:	0f 84 a3 01 00 00    	je     1500 <main+0x1f7>
    135d:	48 8d 35 2c 5f 00 00 	lea    0x5f2c(%rip),%rsi        # 7290 <n>
    1364:	48 8d 3d f5 5d 00 00 	lea    0x5df5(%rip),%rdi        # 7160 <_ZSt3cin@@GLIBCXX_3.4>
    136b:	e8 50 fe ff ff       	callq  11c0 <_ZNSirsERx@plt>
    1370:	48 8d 45 d0          	lea    -0x30(%rbp),%rax
    1374:	48 89 c7             	mov    %rax,%rdi
    1377:	e8 f8 02 00 00       	callq  1674 <_ZNSt6vectorISt4pairIiiESaIS1_EEC1Ev>
    137c:	c7 45 ac 00 00 00 00 	movl   $0x0,-0x54(%rbp)
    1383:	8b 45 ac             	mov    -0x54(%rbp),%eax
    1386:	48 63 d0             	movslq %eax,%rdx
    1389:	48 8b 05 00 5f 00 00 	mov    0x5f00(%rip),%rax        # 7290 <n>
    1390:	48 39 c2             	cmp    %rax,%rdx
    1393:	0f 8d 8d 00 00 00    	jge    1426 <main+0x11d>
    1399:	48 8d 35 f8 5e 00 00 	lea    0x5ef8(%rip),%rsi        # 7298 <q>
    13a0:	48 8d 3d b9 5d 00 00 	lea    0x5db9(%rip),%rdi        # 7160 <_ZSt3cin@@GLIBCXX_3.4>
    13a7:	e8 14 fe ff ff       	callq  11c0 <_ZNSirsERx@plt>
    13ac:	48 8d 35 d5 5e 00 00 	lea    0x5ed5(%rip),%rsi        # 7288 <m>
    13b3:	48 89 c7             	mov    %rax,%rdi
    13b6:	e8 05 fe ff ff       	callq  11c0 <_ZNSirsERx@plt>
    13bb:	c7 45 b0 01 00 00 00 	movl   $0x1,-0x50(%rbp)
    13c2:	48 8d 55 b0          	lea    -0x50(%rbp),%rdx
    13c6:	48 8d 45 c8          	lea    -0x38(%rbp),%rax
    13ca:	48 8d 35 c7 5e 00 00 	lea    0x5ec7(%rip),%rsi        # 7298 <q>
    13d1:	48 89 c7             	mov    %rax,%rdi
    13d4:	e8 f3 03 00 00       	callq  17cc <_ZNSt4pairIiiEC1IRxiLb1EEEOT_OT0_>
    13d9:	48 8d 55 c8          	lea    -0x38(%rbp),%rdx
    13dd:	48 8d 45 d0          	lea    -0x30(%rbp),%rax
    13e1:	48 89 d6             	mov    %rdx,%rsi
    13e4:	48 89 c7             	mov    %rax,%rdi
    13e7:	e8 28 04 00 00       	callq  1814 <_ZNSt6vectorISt4pairIiiESaIS1_EE9push_backEOS1_>
    13ec:	c7 45 b0 ff ff ff ff 	movl   $0xffffffff,-0x50(%rbp)
    13f3:	48 8d 55 b0          	lea    -0x50(%rbp),%rdx
    13f7:	48 8d 45 c8          	lea    -0x38(%rbp),%rax
    13fb:	48 8d 35 86 5e 00 00 	lea    0x5e86(%rip),%rsi        # 7288 <m>
    1402:	48 89 c7             	mov    %rax,%rdi
    1405:	e8 c2 03 00 00       	callq  17cc <_ZNSt4pairIiiEC1IRxiLb1EEEOT_OT0_>
    140a:	48 8d 55 c8          	lea    -0x38(%rbp),%rdx
    140e:	48 8d 45 d0          	lea    -0x30(%rbp),%rax
    1412:	48 89 d6             	mov    %rdx,%rsi
    1415:	48 89 c7             	mov    %rax,%rdi
    1418:	e8 f7 03 00 00       	callq  1814 <_ZNSt6vectorISt4pairIiiESaIS1_EE9push_backEOS1_>
    141d:	83 45 ac 01          	addl   $0x1,-0x54(%rbp)
    1421:	e9 5d ff ff ff       	jmpq   1383 <main+0x7a>
    1426:	c7 45 a0 00 00 00 00 	movl   $0x0,-0x60(%rbp)
    142d:	c7 45 a4 00 00 00 00 	movl   $0x0,-0x5c(%rbp)
    1434:	48 8d 45 d0          	lea    -0x30(%rbp),%rax
    1438:	48 89 c7             	mov    %rax,%rdi
    143b:	e8 56 04 00 00       	callq  1896 <_ZNSt6vectorISt4pairIiiESaIS1_EE3endEv>
    1440:	48 89 c3             	mov    %rax,%rbx
    1443:	48 8d 45 d0          	lea    -0x30(%rbp),%rax
    1447:	48 89 c7             	mov    %rax,%rdi
    144a:	e8 fb 03 00 00       	callq  184a <_ZNSt6vectorISt4pairIiiESaIS1_EE5beginEv>
    144f:	48 89 de             	mov    %rbx,%rsi
    1452:	48 89 c7             	mov    %rax,%rdi
    1455:	e8 8c 04 00 00       	callq  18e6 <_ZSt4sortIN9__gnu_cxx17__normal_iteratorIPSt4pairIiiESt6vectorIS3_SaIS3_EEEEEvT_S9_>
    145a:	48 8d 45 d0          	lea    -0x30(%rbp),%rax
    145e:	48 89 45 b8          	mov    %rax,-0x48(%rbp)
    1462:	48 8b 45 b8          	mov    -0x48(%rbp),%rax
    1466:	48 89 c7             	mov    %rax,%rdi
    1469:	e8 dc 03 00 00       	callq  184a <_ZNSt6vectorISt4pairIiiESaIS1_EE5beginEv>
    146e:	48 89 45 b0          	mov    %rax,-0x50(%rbp)
    1472:	48 8b 45 b8          	mov    -0x48(%rbp),%rax
    1476:	48 89 c7             	mov    %rax,%rdi
    1479:	e8 18 04 00 00       	callq  1896 <_ZNSt6vectorISt4pairIiiESaIS1_EE3endEv>
    147e:	48 89 45 c8          	mov    %rax,-0x38(%rbp)
    1482:	48 8d 55 c8          	lea    -0x38(%rbp),%rdx
    1486:	48 8d 45 b0          	lea    -0x50(%rbp),%rax
    148a:	48 89 d6             	mov    %rdx,%rsi
    148d:	48 89 c7             	mov    %rax,%rdi
    1490:	e8 a3 04 00 00       	callq  1938 <_ZN9__gnu_cxxneIPSt4pairIiiESt6vectorIS2_SaIS2_EEEEbRKNS_17__normal_iteratorIT_T0_EESC_>
    1495:	84 c0                	test   %al,%al
    1497:	74 45                	je     14de <main+0x1d5>
    1499:	48 8d 45 b0          	lea    -0x50(%rbp),%rax
    149d:	48 89 c7             	mov    %rax,%rdi
    14a0:	e8 f7 04 00 00       	callq  199c <_ZNK9__gnu_cxx17__normal_iteratorIPSt4pairIiiESt6vectorIS2_SaIS2_EEEdeEv>
    14a5:	48 89 45 c0          	mov    %rax,-0x40(%rbp)
    14a9:	48 8b 45 c0          	mov    -0x40(%rbp),%rax
    14ad:	8b 50 04             	mov    0x4(%rax),%edx
    14b0:	8b 45 a4             	mov    -0x5c(%rbp),%eax
    14b3:	01 d0                	add    %edx,%eax
    14b5:	89 45 a4             	mov    %eax,-0x5c(%rbp)
    14b8:	48 8d 55 a4          	lea    -0x5c(%rbp),%rdx
    14bc:	48 8d 45 a0          	lea    -0x60(%rbp),%rax
    14c0:	48 89 d6             	mov    %rdx,%rsi
    14c3:	48 89 c7             	mov    %rax,%rdi
    14c6:	e8 e6 04 00 00       	callq  19b1 <_ZSt3maxIiERKT_S2_S2_>
    14cb:	8b 00                	mov    (%rax),%eax
    14cd:	89 45 a0             	mov    %eax,-0x60(%rbp)
    14d0:	48 8d 45 b0          	lea    -0x50(%rbp),%rax
    14d4:	48 89 c7             	mov    %rax,%rdi
    14d7:	e8 9c 04 00 00       	callq  1978 <_ZN9__gnu_cxx17__normal_iteratorIPSt4pairIiiESt6vectorIS2_SaIS2_EEEppEv>
    14dc:	eb a4                	jmp    1482 <main+0x179>
    14de:	8b 45 a0             	mov    -0x60(%rbp),%eax
    14e1:	89 c6                	mov    %eax,%esi
    14e3:	48 8d 3d 56 5b 00 00 	lea    0x5b56(%rip),%rdi        # 7040 <_ZSt4cout@@GLIBCXX_3.4>
    14ea:	e8 11 fd ff ff       	callq  1200 <_ZNSolsEi@plt>
    14ef:	48 8d 45 d0          	lea    -0x30(%rbp),%rax
    14f3:	48 89 c7             	mov    %rax,%rdi
    14f6:	e8 77 02 00 00       	callq  1772 <_ZNSt6vectorISt4pairIiiESaIS1_EED1Ev>
    14fb:	e9 47 fe ff ff       	jmpq   1347 <main+0x3e>
    1500:	b8 00 00 00 00       	mov    $0x0,%eax
    1505:	48 8b 4d e8          	mov    -0x18(%rbp),%rcx
    1509:	64 48 33 0c 25 28 00 	xor    %fs:0x28,%rcx
    1510:	00 00 
    1512:	74 25                	je     1539 <main+0x230>
    1514:	eb 1e                	jmp    1534 <main+0x22b>
    1516:	f3 0f 1e fa          	endbr64 
    151a:	48 89 c3             	mov    %rax,%rbx
    151d:	48 8d 45 d0          	lea    -0x30(%rbp),%rax
    1521:	48 89 c7             	mov    %rax,%rdi
    1524:	e8 49 02 00 00       	callq  1772 <_ZNSt6vectorISt4pairIiiESaIS1_EED1Ev>
    1529:	48 89 d8             	mov    %rbx,%rax
    152c:	48 89 c7             	mov    %rax,%rdi
    152f:	e8 dc fc ff ff       	callq  1210 <_Unwind_Resume@plt>
    1534:	e8 77 fc ff ff       	callq  11b0 <__stack_chk_fail@plt>
    1539:	48 83 c4 58          	add    $0x58,%rsp
    153d:	5b                   	pop    %rbx
    153e:	5d                   	pop    %rbp
    153f:	c3                   	retq   

0000000000001540 <_Z41__static_initialization_and_destruction_0ii>:
    1540:	f3 0f 1e fa          	endbr64 
    1544:	55                   	push   %rbp
    1545:	48 89 e5             	mov    %rsp,%rbp
    1548:	48 83 ec 10          	sub    $0x10,%rsp
    154c:	89 7d fc             	mov    %edi,-0x4(%rbp)
    154f:	89 75 f8             	mov    %esi,-0x8(%rbp)
    1552:	83 7d fc 01          	cmpl   $0x1,-0x4(%rbp)
    1556:	75 32                	jne    158a <_Z41__static_initialization_and_destruction_0ii+0x4a>
    1558:	81 7d f8 ff ff 00 00 	cmpl   $0xffff,-0x8(%rbp)
    155f:	75 29                	jne    158a <_Z41__static_initialization_and_destruction_0ii+0x4a>
    1561:	48 8d 3d 38 5d 00 00 	lea    0x5d38(%rip),%rdi        # 72a0 <_ZStL8__ioinit>
    1568:	e8 73 fc ff ff       	callq  11e0 <_ZNSt8ios_base4InitC1Ev@plt>
    156d:	48 8d 15 94 5a 00 00 	lea    0x5a94(%rip),%rdx        # 7008 <__dso_handle>
    1574:	48 8d 35 25 5d 00 00 	lea    0x5d25(%rip),%rsi        # 72a0 <_ZStL8__ioinit>
    157b:	48 8b 05 76 5a 00 00 	mov    0x5a76(%rip),%rax        # 6ff8 <_ZNSt8ios_base4InitD1Ev@GLIBCXX_3.4>
    1582:	48 89 c7             	mov    %rax,%rdi
    1585:	e8 f6 fb ff ff       	callq  1180 <__cxa_atexit@plt>
    158a:	90                   	nop
    158b:	c9                   	leaveq 
    158c:	c3                   	retq   

000000000000158d <_GLOBAL__sub_I_c>:
    158d:	f3 0f 1e fa          	endbr64 
    1591:	55                   	push   %rbp
    1592:	48 89 e5             	mov    %rsp,%rbp
    1595:	be ff ff 00 00       	mov    $0xffff,%esi
    159a:	bf 01 00 00 00       	mov    $0x1,%edi
    159f:	e8 9c ff ff ff       	callq  1540 <_Z41__static_initialization_and_destruction_0ii>
    15a4:	5d                   	pop    %rbp
    15a5:	c3                   	retq   

00000000000015a6 <_ZnwmPv>:
    15a6:	f3 0f 1e fa          	endbr64 
    15aa:	55                   	push   %rbp
    15ab:	48 89 e5             	mov    %rsp,%rbp
    15ae:	48 89 7d f8          	mov    %rdi,-0x8(%rbp)
    15b2:	48 89 75 f0          	mov    %rsi,-0x10(%rbp)
    15b6:	48 8b 45 f0          	mov    -0x10(%rbp),%rax
    15ba:	5d                   	pop    %rbp
    15bb:	c3                   	retq   

00000000000015bc <_ZN9__gnu_cxx5__ops16__iter_less_iterEv>:
    15bc:	f3 0f 1e fa          	endbr64 
    15c0:	55                   	push   %rbp
    15c1:	48 89 e5             	mov    %rsp,%rbp
    15c4:	5d                   	pop    %rbp
    15c5:	c3                   	retq   

00000000000015c6 <_ZN9__gnu_cxx5__ops14_Iter_less_valC1ENS0_15_Iter_less_iterE>:
    15c6:	f3 0f 1e fa          	endbr64 
    15ca:	55                   	push   %rbp
    15cb:	48 89 e5             	mov    %rsp,%rbp
    15ce:	48 89 7d f8          	mov    %rdi,-0x8(%rbp)
    15d2:	90                   	nop
    15d3:	5d                   	pop    %rbp
    15d4:	c3                   	retq   

00000000000015d5 <_ZN9__gnu_cxx5__ops15__val_comp_iterENS0_15_Iter_less_iterE>:
    15d5:	f3 0f 1e fa          	endbr64 
    15d9:	55                   	push   %rbp
    15da:	48 89 e5             	mov    %rsp,%rbp
    15dd:	5d                   	pop    %rbp
    15de:	c3                   	retq   

00000000000015df <_ZSt4__lgl>:
    15df:	f3 0f 1e fa          	endbr64 
    15e3:	55                   	push   %rbp
    15e4:	48 89 e5             	mov    %rsp,%rbp
    15e7:	48 89 7d f8          	mov    %rdi,-0x8(%rbp)
    15eb:	48 8b 45 f8          	mov    -0x8(%rbp),%rax
    15ef:	48 0f bd c0          	bsr    %rax,%rax
    15f3:	48 83 f0 3f          	xor    $0x3f,%rax
    15f7:	ba 3f 00 00 00       	mov    $0x3f,%edx
    15fc:	29 c2                	sub    %eax,%edx
    15fe:	89 d0                	mov    %edx,%eax
    1600:	48 98                	cltq   
    1602:	5d                   	pop    %rbp
    1603:	c3                   	retq   

0000000000001604 <_ZSt3minImERKT_S2_S2_>:
    1604:	f3 0f 1e fa          	endbr64 
    1608:	55                   	push   %rbp
    1609:	48 89 e5             	mov    %rsp,%rbp
    160c:	48 89 7d f8          	mov    %rdi,-0x8(%rbp)
    1610:	48 89 75 f0          	mov    %rsi,-0x10(%rbp)
    1614:	48 8b 45 f0          	mov    -0x10(%rbp),%rax
    1618:	48 8b 10             	mov    (%rax),%rdx
    161b:	48 8b 45 f8          	mov    -0x8(%rbp),%rax
    161f:	48 8b 00             	mov    (%rax),%rax
    1622:	48 39 c2             	cmp    %rax,%rdx
    1625:	73 06                	jae    162d <_ZSt3minImERKT_S2_S2_+0x29>
    1627:	48 8b 45 f0          	mov    -0x10(%rbp),%rax
    162b:	eb 04                	jmp    1631 <_ZSt3minImERKT_S2_S2_+0x2d>
    162d:	48 8b 45 f8          	mov    -0x8(%rbp),%rax
    1631:	5d                   	pop    %rbp
    1632:	c3                   	retq   
    1633:	90                   	nop

0000000000001634 <_ZNSt12_Vector_baseISt4pairIiiESaIS1_EE12_Vector_implD1Ev>:
    1634:	f3 0f 1e fa          	endbr64 
    1638:	55                   	push   %rbp
    1639:	48 89 e5             	mov    %rsp,%rbp
    163c:	48 83 ec 10          	sub    $0x10,%rsp
    1640:	48 89 7d f8          	mov    %rdi,-0x8(%rbp)
    1644:	48 8b 45 f8          	mov    -0x8(%rbp),%rax
    1648:	48 89 c7             	mov    %rax,%rdi
    164b:	e8 b0 00 00 00       	callq  1700 <_ZNSaISt4pairIiiEED1Ev>
    1650:	90                   	nop
    1651:	c9                   	leaveq 
    1652:	c3                   	retq   
    1653:	90                   	nop

0000000000001654 <_ZNSt12_Vector_baseISt4pairIiiESaIS1_EEC1Ev>:
    1654:	f3 0f 1e fa          	endbr64 
    1658:	55                   	push   %rbp
    1659:	48 89 e5             	mov    %rsp,%rbp
    165c:	48 83 ec 10          	sub    $0x10,%rsp
    1660:	48 89 7d f8          	mov    %rdi,-0x8(%rbp)
    1664:	48 8b 45 f8          	mov    -0x8(%rbp),%rax
    1668:	48 89 c7             	mov    %rax,%rdi
    166b:	e8 64 00 00 00       	callq  16d4 <_ZNSt12_Vector_baseISt4pairIiiESaIS1_EE12_Vector_implC1Ev>
    1670:	90                   	nop
    1671:	c9                   	leaveq 
    1672:	c3                   	retq   
    1673:	90                   	nop

0000000000001674 <_ZNSt6vectorISt4pairIiiESaIS1_EEC1Ev>:
    1674:	f3 0f 1e fa          	endbr64 
    1678:	55                   	push   %rbp
    1679:	48 89 e5             	mov    %rsp,%rbp
    167c:	48 83 ec 10          	sub    $0x10,%rsp
    1680:	48 89 7d f8          	mov    %rdi,-0x8(%rbp)
    1684:	48 8b 45 f8          	mov    -0x8(%rbp),%rax
    1688:	48 89 c7             	mov    %rax,%rdi
    168b:	e8 c4 ff ff ff       	callq  1654 <_ZNSt12_Vector_baseISt4pairIiiESaIS1_EEC1Ev>
    1690:	90                   	nop
    1691:	c9                   	leaveq 
    1692:	c3                   	retq   

0000000000001693 <_ZSt3maxImERKT_S2_S2_>:
    1693:	f3 0f 1e fa          	endbr64 
    1697:	55                   	push   %rbp
    1698:	48 89 e5             	mov    %rsp,%rbp
    169b:	48 89 7d f8          	mov    %rdi,-0x8(%rbp)
    169f:	48 89 75 f0          	mov    %rsi,-0x10(%rbp)
    16a3:	48 8b 45 f8          	mov    -0x8(%rbp),%rax
    16a7:	48 8b 10             	mov    (%rax),%rdx
    16aa:	48 8b 45 f0          	mov    -0x10(%rbp),%rax
    16ae:	48 8b 00             	mov    (%rax),%rax
    16b1:	48 39 c2             	cmp    %rax,%rdx
    16b4:	73 06                	jae    16bc <_ZSt3maxImERKT_S2_S2_+0x29>
    16b6:	48 8b 45 f0          	mov    -0x10(%rbp),%rax
    16ba:	eb 04                	jmp    16c0 <_ZSt3maxImERKT_S2_S2_+0x2d>
    16bc:	48 8b 45 f8          	mov    -0x8(%rbp),%rax
    16c0:	5d                   	pop    %rbp
    16c1:	c3                   	retq   

00000000000016c2 <_ZSt7forwardIiEOT_RNSt16remove_referenceIS0_E4typeE>:
    16c2:	f3 0f 1e fa          	endbr64 
    16c6:	55                   	push   %rbp
    16c7:	48 89 e5             	mov    %rsp,%rbp
    16ca:	48 89 7d f8          	mov    %rdi,-0x8(%rbp)
    16ce:	48 8b 45 f8          	mov    -0x8(%rbp),%rax
    16d2:	5d                   	pop    %rbp
    16d3:	c3                   	retq   

00000000000016d4 <_ZNSt12_Vector_baseISt4pairIiiESaIS1_EE12_Vector_implC1Ev>:
    16d4:	f3 0f 1e fa          	endbr64 
    16d8:	55                   	push   %rbp
    16d9:	48 89 e5             	mov    %rsp,%rbp
    16dc:	48 83 ec 10          	sub    $0x10,%rsp
    16e0:	48 89 7d f8          	mov    %rdi,-0x8(%rbp)
    16e4:	48 8b 45 f8          	mov    -0x8(%rbp),%rax
    16e8:	48 89 c7             	mov    %rax,%rdi
    16eb:	e8 ee 02 00 00       	callq  19de <_ZNSaISt4pairIiiEEC1Ev>
    16f0:	48 8b 45 f8          	mov    -0x8(%rbp),%rax
    16f4:	48 89 c7             	mov    %rax,%rdi
    16f7:	e8 02 03 00 00       	callq  19fe <_ZNSt12_Vector_baseISt4pairIiiESaIS1_EE17_Vector_impl_dataC1Ev>
    16fc:	90                   	nop
    16fd:	c9                   	leaveq 
    16fe:	c3                   	retq   
    16ff:	90                   	nop

0000000000001700 <_ZNSaISt4pairIiiEED1Ev>:
    1700:	f3 0f 1e fa          	endbr64 
    1704:	55                   	push   %rbp
    1705:	48 89 e5             	mov    %rsp,%rbp
    1708:	48 83 ec 10          	sub    $0x10,%rsp
    170c:	48 89 7d f8          	mov    %rdi,-0x8(%rbp)
    1710:	48 8b 45 f8          	mov    -0x8(%rbp),%rax
    1714:	48 89 c7             	mov    %rax,%rdi
    1717:	e8 14 03 00 00       	callq  1a30 <_ZN9__gnu_cxx13new_allocatorISt4pairIiiEED1Ev>
    171c:	90                   	nop
    171d:	c9                   	leaveq 
    171e:	c3                   	retq   
    171f:	90                   	nop

0000000000001720 <_ZNSt12_Vector_baseISt4pairIiiESaIS1_EED1Ev>:
    1720:	f3 0f 1e fa          	endbr64 
    1724:	55                   	push   %rbp
    1725:	48 89 e5             	mov    %rsp,%rbp
    1728:	48 83 ec 10          	sub    $0x10,%rsp
    172c:	48 89 7d f8          	mov    %rdi,-0x8(%rbp)
    1730:	48 8b 45 f8          	mov    -0x8(%rbp),%rax
    1734:	48 8b 50 10          	mov    0x10(%rax),%rdx
    1738:	48 8b 45 f8          	mov    -0x8(%rbp),%rax
    173c:	48 8b 00             	mov    (%rax),%rax
    173f:	48 29 c2             	sub    %rax,%rdx
    1742:	48 89 d0             	mov    %rdx,%rax
    1745:	48 c1 f8 03          	sar    $0x3,%rax
    1749:	48 89 c2             	mov    %rax,%rdx
    174c:	48 8b 45 f8          	mov    -0x8(%rbp),%rax
    1750:	48 8b 08             	mov    (%rax),%rcx
    1753:	48 8b 45 f8          	mov    -0x8(%rbp),%rax
    1757:	48 89 ce             	mov    %rcx,%rsi
    175a:	48 89 c7             	mov    %rax,%rdi
    175d:	e8 de 02 00 00       	callq  1a40 <_ZNSt12_Vector_baseISt4pairIiiESaIS1_EE13_M_deallocateEPS1_m>
    1762:	48 8b 45 f8          	mov    -0x8(%rbp),%rax
    1766:	48 89 c7             	mov    %rax,%rdi
    1769:	e8 c6 fe ff ff       	callq  1634 <_ZNSt12_Vector_baseISt4pairIiiESaIS1_EE12_Vector_implD1Ev>
    176e:	90                   	nop
    176f:	c9                   	leaveq 
    1770:	c3                   	retq   
    1771:	90                   	nop

0000000000001772 <_ZNSt6vectorISt4pairIiiESaIS1_EED1Ev>:
    1772:	f3 0f 1e fa          	endbr64 
    1776:	55                   	push   %rbp
    1777:	48 89 e5             	mov    %rsp,%rbp
    177a:	48 83 ec 10          	sub    $0x10,%rsp
    177e:	48 89 7d f8          	mov    %rdi,-0x8(%rbp)
    1782:	48 8b 45 f8          	mov    -0x8(%rbp),%rax
    1786:	48 89 c7             	mov    %rax,%rdi
    1789:	e8 ec 02 00 00       	callq  1a7a <_ZNSt12_Vector_baseISt4pairIiiESaIS1_EE19_M_get_Tp_allocatorEv>
    178e:	48 89 c2             	mov    %rax,%rdx
    1791:	48 8b 45 f8          	mov    -0x8(%rbp),%rax
    1795:	48 8b 48 08          	mov    0x8(%rax),%rcx
    1799:	48 8b 45 f8          	mov    -0x8(%rbp),%rax
    179d:	48 8b 00             	mov    (%rax),%rax
    17a0:	48 89 ce             	mov    %rcx,%rsi
    17a3:	48 89 c7             	mov    %rax,%rdi
    17a6:	e8 e1 02 00 00       	callq  1a8c <_ZSt8_DestroyIPSt4pairIiiES1_EvT_S3_RSaIT0_E>
    17ab:	48 8b 45 f8          	mov    -0x8(%rbp),%rax
    17af:	48 89 c7             	mov    %rax,%rdi
    17b2:	e8 69 ff ff ff       	callq  1720 <_ZNSt12_Vector_baseISt4pairIiiESaIS1_EED1Ev>
    17b7:	90                   	nop
    17b8:	c9                   	leaveq 
    17b9:	c3                   	retq   

00000000000017ba <_ZSt7forwardIRxEOT_RNSt16remove_referenceIS1_E4typeE>:
    17ba:	f3 0f 1e fa          	endbr64 
    17be:	55                   	push   %rbp
    17bf:	48 89 e5             	mov    %rsp,%rbp
    17c2:	48 89 7d f8          	mov    %rdi,-0x8(%rbp)
    17c6:	48 8b 45 f8          	mov    -0x8(%rbp),%rax
    17ca:	5d                   	pop    %rbp
    17cb:	c3                   	retq   

00000000000017cc <_ZNSt4pairIiiEC1IRxiLb1EEEOT_OT0_>:
    17cc:	f3 0f 1e fa          	endbr64 
    17d0:	55                   	push   %rbp
    17d1:	48 89 e5             	mov    %rsp,%rbp
    17d4:	48 83 ec 20          	sub    $0x20,%rsp
    17d8:	48 89 7d f8          	mov    %rdi,-0x8(%rbp)
    17dc:	48 89 75 f0          	mov    %rsi,-0x10(%rbp)
    17e0:	48 89 55 e8          	mov    %rdx,-0x18(%rbp)
    17e4:	48 8b 45 f0          	mov    -0x10(%rbp),%rax
    17e8:	48 89 c7             	mov    %rax,%rdi
    17eb:	e8 ca ff ff ff       	callq  17ba <_ZSt7forwardIRxEOT_RNSt16remove_referenceIS1_E4typeE>
    17f0:	48 8b 00             	mov    (%rax),%rax
    17f3:	89 c2                	mov    %eax,%edx
    17f5:	48 8b 45 f8          	mov    -0x8(%rbp),%rax
    17f9:	89 10                	mov    %edx,(%rax)
    17fb:	48 8b 45 e8          	mov    -0x18(%rbp),%rax
    17ff:	48 89 c7             	mov    %rax,%rdi
    1802:	e8 bb fe ff ff       	callq  16c2 <_ZSt7forwardIiEOT_RNSt16remove_referenceIS0_E4typeE>
    1807:	8b 10                	mov    (%rax),%edx
    1809:	48 8b 45 f8          	mov    -0x8(%rbp),%rax
    180d:	89 50 04             	mov    %edx,0x4(%rax)
    1810:	90                   	nop
    1811:	c9                   	leaveq 
    1812:	c3                   	retq   
    1813:	90                   	nop

0000000000001814 <_ZNSt6vectorISt4pairIiiESaIS1_EE9push_backEOS1_>:
    1814:	f3 0f 1e fa          	endbr64 
    1818:	55                   	push   %rbp
    1819:	48 89 e5             	mov    %rsp,%rbp
    181c:	48 83 ec 10          	sub    $0x10,%rsp
    1820:	48 89 7d f8          	mov    %rdi,-0x8(%rbp)
    1824:	48 89 75 f0          	mov    %rsi,-0x10(%rbp)
    1828:	48 8b 45 f0          	mov    -0x10(%rbp),%rax
    182c:	48 89 c7             	mov    %rax,%rdi
    182f:	e8 86 02 00 00       	callq  1aba <_ZSt4moveIRSt4pairIiiEEONSt16remove_referenceIT_E4typeEOS4_>
    1834:	48 89 c2             	mov    %rax,%rdx
    1837:	48 8b 45 f8          	mov    -0x8(%rbp),%rax
    183b:	48 89 d6             	mov    %rdx,%rsi
    183e:	48 89 c7             	mov    %rax,%rdi
    1841:	e8 86 02 00 00       	callq  1acc <_ZNSt6vectorISt4pairIiiESaIS1_EE12emplace_backIJS1_EEEvDpOT_>
    1846:	90                   	nop
    1847:	c9                   	leaveq 
    1848:	c3                   	retq   
    1849:	90                   	nop

000000000000184a <_ZNSt6vectorISt4pairIiiESaIS1_EE5beginEv>:
    184a:	f3 0f 1e fa          	endbr64 
    184e:	55                   	push   %rbp
    184f:	48 89 e5             	mov    %rsp,%rbp
    1852:	48 83 ec 20          	sub    $0x20,%rsp
    1856:	48 89 7d e8          	mov    %rdi,-0x18(%rbp)
    185a:	64 48 8b 04 25 28 00 	mov    %fs:0x28,%rax
    1861:	00 00 
    1863:	48 89 45 f8          	mov    %rax,-0x8(%rbp)
    1867:	31 c0                	xor    %eax,%eax
    1869:	48 8b 55 e8          	mov    -0x18(%rbp),%rdx
    186d:	48 8d 45 f0          	lea    -0x10(%rbp),%rax
    1871:	48 89 d6             	mov    %rdx,%rsi
    1874:	48 89 c7             	mov    %rax,%rdi
    1877:	e8 ee 02 00 00       	callq  1b6a <_ZN9__gnu_cxx17__normal_iteratorIPSt4pairIiiESt6vectorIS2_SaIS2_EEEC1ERKS3_>
    187c:	48 8b 45 f0          	mov    -0x10(%rbp),%rax
    1880:	48 8b 4d f8          	mov    -0x8(%rbp),%rcx
    1884:	64 48 33 0c 25 28 00 	xor    %fs:0x28,%rcx
    188b:	00 00 
    188d:	74 05                	je     1894 <_ZNSt6vectorISt4pairIiiESaIS1_EE5beginEv+0x4a>
    188f:	e8 1c f9 ff ff       	callq  11b0 <__stack_chk_fail@plt>
    1894:	c9                   	leaveq 
    1895:	c3                   	retq   

0000000000001896 <_ZNSt6vectorISt4pairIiiESaIS1_EE3endEv>:
    1896:	f3 0f 1e fa          	endbr64 
    189a:	55                   	push   %rbp
    189b:	48 89 e5             	mov    %rsp,%rbp
    189e:	48 83 ec 20          	sub    $0x20,%rsp
    18a2:	48 89 7d e8          	mov    %rdi,-0x18(%rbp)
    18a6:	64 48 8b 04 25 28 00 	mov    %fs:0x28,%rax
    18ad:	00 00 
    18af:	48 89 45 f8          	mov    %rax,-0x8(%rbp)
    18b3:	31 c0                	xor    %eax,%eax
    18b5:	48 8b 45 e8          	mov    -0x18(%rbp),%rax
    18b9:	48 8d 50 08          	lea    0x8(%rax),%rdx
    18bd:	48 8d 45 f0          	lea    -0x10(%rbp),%rax
    18c1:	48 89 d6             	mov    %rdx,%rsi
    18c4:	48 89 c7             	mov    %rax,%rdi
    18c7:	e8 9e 02 00 00       	callq  1b6a <_ZN9__gnu_cxx17__normal_iteratorIPSt4pairIiiESt6vectorIS2_SaIS2_EEEC1ERKS3_>
    18cc:	48 8b 45 f0          	mov    -0x10(%rbp),%rax
    18d0:	48 8b 4d f8          	mov    -0x8(%rbp),%rcx
    18d4:	64 48 33 0c 25 28 00 	xor    %fs:0x28,%rcx
    18db:	00 00 
    18dd:	74 05                	je     18e4 <_ZNSt6vectorISt4pairIiiESaIS1_EE3endEv+0x4e>
    18df:	e8 cc f8 ff ff       	callq  11b0 <__stack_chk_fail@plt>
    18e4:	c9                   	leaveq 
    18e5:	c3                   	retq   

00000000000018e6 <_ZSt4sortIN9__gnu_cxx17__normal_iteratorIPSt4pairIiiESt6vectorIS3_SaIS3_EEEEEvT_S9_>:
    18e6:	f3 0f 1e fa          	endbr64 
    18ea:	55                   	push   %rbp
    18eb:	48 89 e5             	mov    %rsp,%rbp
    18ee:	48 83 ec 20          	sub    $0x20,%rsp
    18f2:	48 89 7d e8          	mov    %rdi,-0x18(%rbp)
    18f6:	48 89 75 e0          	mov    %rsi,-0x20(%rbp)
    18fa:	64 48 8b 04 25 28 00 	mov    %fs:0x28,%rax
    1901:	00 00 
    1903:	48 89 45 f8          	mov    %rax,-0x8(%rbp)
    1907:	31 c0                	xor    %eax,%eax
    1909:	e8 ae fc ff ff       	callq  15bc <_ZN9__gnu_cxx5__ops16__iter_less_iterEv>
    190e:	48 8b 55 e0          	mov    -0x20(%rbp),%rdx
    1912:	48 8b 45 e8          	mov    -0x18(%rbp),%rax
    1916:	48 89 d6             	mov    %rdx,%rsi
    1919:	48 89 c7             	mov    %rax,%rdi
    191c:	e8 6a 02 00 00       	callq  1b8b <_ZSt6__sortIN9__gnu_cxx17__normal_iteratorIPSt4pairIiiESt6vectorIS3_SaIS3_EEEENS0_5__ops15_Iter_less_iterEEvT_SB_T0_>
    1921:	90                   	nop
    1922:	48 8b 45 f8          	mov    -0x8(%rbp),%rax
    1926:	64 48 33 04 25 28 00 	xor    %fs:0x28,%rax
    192d:	00 00 
    192f:	74 05                	je     1936 <_ZSt4sortIN9__gnu_cxx17__normal_iteratorIPSt4pairIiiESt6vectorIS3_SaIS3_EEEEEvT_S9_+0x50>
    1931:	e8 7a f8 ff ff       	callq  11b0 <__stack_chk_fail@plt>
    1936:	c9                   	leaveq 
    1937:	c3                   	retq   

0000000000001938 <_ZN9__gnu_cxxneIPSt4pairIiiESt6vectorIS2_SaIS2_EEEEbRKNS_17__normal_iteratorIT_T0_EESC_>:
    1938:	f3 0f 1e fa          	endbr64 
    193c:	55                   	push   %rbp
    193d:	48 89 e5             	mov    %rsp,%rbp
    1940:	53                   	push   %rbx
    1941:	48 83 ec 18          	sub    $0x18,%rsp
    1945:	48 89 7d e8          	mov    %rdi,-0x18(%rbp)
    1949:	48 89 75 e0          	mov    %rsi,-0x20(%rbp)
    194d:	48 8b 45 e8          	mov    -0x18(%rbp),%rax
    1951:	48 89 c7             	mov    %rax,%rdi
    1954:	e8 a5 02 00 00       	callq  1bfe <_ZNK9__gnu_cxx17__normal_iteratorIPSt4pairIiiESt6vectorIS2_SaIS2_EEE4baseEv>
    1959:	48 8b 18             	mov    (%rax),%rbx
    195c:	48 8b 45 e0          	mov    -0x20(%rbp),%rax
    1960:	48 89 c7             	mov    %rax,%rdi
    1963:	e8 96 02 00 00       	callq  1bfe <_ZNK9__gnu_cxx17__normal_iteratorIPSt4pairIiiESt6vectorIS2_SaIS2_EEE4baseEv>
    1968:	48 8b 00             	mov    (%rax),%rax
    196b:	48 39 c3             	cmp    %rax,%rbx
    196e:	0f 95 c0             	setne  %al
    1971:	48 83 c4 18          	add    $0x18,%rsp
    1975:	5b                   	pop    %rbx
    1976:	5d                   	pop    %rbp
    1977:	c3                   	retq   

0000000000001978 <_ZN9__gnu_cxx17__normal_iteratorIPSt4pairIiiESt6vectorIS2_SaIS2_EEEppEv>:
    1978:	f3 0f 1e fa          	endbr64 
    197c:	55                   	push   %rbp
    197d:	48 89 e5             	mov    %rsp,%rbp
    1980:	48 89 7d f8          	mov    %rdi,-0x8(%rbp)
    1984:	48 8b 45 f8          	mov    -0x8(%rbp),%rax
    1988:	48 8b 00             	mov    (%rax),%rax
    198b:	48 8d 50 08          	lea    0x8(%rax),%rdx
    198f:	48 8b 45 f8          	mov    -0x8(%rbp),%rax
    1993:	48 89 10             	mov    %rdx,(%rax)
    1996:	48 8b 45 f8          	mov    -0x8(%rbp),%rax
    199a:	5d                   	pop    %rbp
    199b:	c3                   	retq   

000000000000199c <_ZNK9__gnu_cxx17__normal_iteratorIPSt4pairIiiESt6vectorIS2_SaIS2_EEEdeEv>:
    199c:	f3 0f 1e fa          	endbr64 
    19a0:	55                   	push   %rbp
    19a1:	48 89 e5             	mov    %rsp,%rbp
    19a4:	48 89 7d f8          	mov    %rdi,-0x8(%rbp)
    19a8:	48 8b 45 f8          	mov    -0x8(%rbp),%rax
    19ac:	48 8b 00             	mov    (%rax),%rax
    19af:	5d                   	pop    %rbp
    19b0:	c3                   	retq   

00000000000019b1 <_ZSt3maxIiERKT_S2_S2_>:
    19b1:	f3 0f 1e fa          	endbr64 
    19b5:	55                   	push   %rbp
    19b6:	48 89 e5             	mov    %rsp,%rbp
    19b9:	48 89 7d f8          	mov    %rdi,-0x8(%rbp)
    19bd:	48 89 75 f0          	mov    %rsi,-0x10(%rbp)
    19c1:	48 8b 45 f8          	mov    -0x8(%rbp),%rax
    19c5:	8b 10                	mov    (%rax),%edx
    19c7:	48 8b 45 f0          	mov    -0x10(%rbp),%rax
    19cb:	8b 00                	mov    (%rax),%eax
    19cd:	39 c2                	cmp    %eax,%edx
    19cf:	7d 06                	jge    19d7 <_ZSt3maxIiERKT_S2_S2_+0x26>
    19d1:	48 8b 45 f0          	mov    -0x10(%rbp),%rax
    19d5:	eb 04                	jmp    19db <_ZSt3maxIiERKT_S2_S2_+0x2a>
    19d7:	48 8b 45 f8          	mov    -0x8(%rbp),%rax
    19db:	5d                   	pop    %rbp
    19dc:	c3                   	retq   
    19dd:	90                   	nop

00000000000019de <_ZNSaISt4pairIiiEEC1Ev>:
    19de:	f3 0f 1e fa          	endbr64 
    19e2:	55                   	push   %rbp
    19e3:	48 89 e5             	mov    %rsp,%rbp
    19e6:	48 83 ec 10          	sub    $0x10,%rsp
    19ea:	48 89 7d f8          	mov    %rdi,-0x8(%rbp)
    19ee:	48 8b 45 f8          	mov    -0x8(%rbp),%rax
    19f2:	48 89 c7             	mov    %rax,%rdi
    19f5:	e8 16 02 00 00       	callq  1c10 <_ZN9__gnu_cxx13new_allocatorISt4pairIiiEEC1Ev>
    19fa:	90                   	nop
    19fb:	c9                   	leaveq 
    19fc:	c3                   	retq   
    19fd:	90                   	nop

00000000000019fe <_ZNSt12_Vector_baseISt4pairIiiESaIS1_EE17_Vector_impl_dataC1Ev>:
    19fe:	f3 0f 1e fa          	endbr64 
    1a02:	55                   	push   %rbp
    1a03:	48 89 e5             	mov    %rsp,%rbp
    1a06:	48 89 7d f8          	mov    %rdi,-0x8(%rbp)
    1a0a:	48 8b 45 f8          	mov    -0x8(%rbp),%rax
    1a0e:	48 c7 00 00 00 00 00 	movq   $0x0,(%rax)
    1a15:	48 8b 45 f8          	mov    -0x8(%rbp),%rax
    1a19:	48 c7 40 08 00 00 00 	movq   $0x0,0x8(%rax)
    1a20:	00 
    1a21:	48 8b 45 f8          	mov    -0x8(%rbp),%rax
    1a25:	48 c7 40 10 00 00 00 	movq   $0x0,0x10(%rax)
    1a2c:	00 
    1a2d:	90                   	nop
    1a2e:	5d                   	pop    %rbp
    1a2f:	c3                   	retq   

0000000000001a30 <_ZN9__gnu_cxx13new_allocatorISt4pairIiiEED1Ev>:
    1a30:	f3 0f 1e fa          	endbr64 
    1a34:	55                   	push   %rbp
    1a35:	48 89 e5             	mov    %rsp,%rbp
    1a38:	48 89 7d f8          	mov    %rdi,-0x8(%rbp)
    1a3c:	90                   	nop
    1a3d:	5d                   	pop    %rbp
    1a3e:	c3                   	retq   
    1a3f:	90                   	nop

0000000000001a40 <_ZNSt12_Vector_baseISt4pairIiiESaIS1_EE13_M_deallocateEPS1_m>:
    1a40:	f3 0f 1e fa          	endbr64 
    1a44:	55                   	push   %rbp
    1a45:	48 89 e5             	mov    %rsp,%rbp
    1a48:	48 83 ec 20          	sub    $0x20,%rsp
    1a4c:	48 89 7d f8          	mov    %rdi,-0x8(%rbp)
    1a50:	48 89 75 f0          	mov    %rsi,-0x10(%rbp)
    1a54:	48 89 55 e8          	mov    %rdx,-0x18(%rbp)
    1a58:	48 83 7d f0 00       	cmpq   $0x0,-0x10(%rbp)
    1a5d:	74 17                	je     1a76 <_ZNSt12_Vector_baseISt4pairIiiESaIS1_EE13_M_deallocateEPS1_m+0x36>
    1a5f:	48 8b 45 f8          	mov    -0x8(%rbp),%rax
    1a63:	48 8b 55 e8          	mov    -0x18(%rbp),%rdx
    1a67:	48 8b 4d f0          	mov    -0x10(%rbp),%rcx
    1a6b:	48 89 ce             	mov    %rcx,%rsi
    1a6e:	48 89 c7             	mov    %rax,%rdi
    1a71:	e8 a9 01 00 00       	callq  1c1f <_ZNSt16allocator_traitsISaISt4pairIiiEEE10deallocateERS2_PS1_m>
    1a76:	90                   	nop
    1a77:	c9                   	leaveq 
    1a78:	c3                   	retq   
    1a79:	90                   	nop

0000000000001a7a <_ZNSt12_Vector_baseISt4pairIiiESaIS1_EE19_M_get_Tp_allocatorEv>:
    1a7a:	f3 0f 1e fa          	endbr64 
    1a7e:	55                   	push   %rbp
    1a7f:	48 89 e5             	mov    %rsp,%rbp
    1a82:	48 89 7d f8          	mov    %rdi,-0x8(%rbp)
    1a86:	48 8b 45 f8          	mov    -0x8(%rbp),%rax
    1a8a:	5d                   	pop    %rbp
    1a8b:	c3                   	retq   

0000000000001a8c <_ZSt8_DestroyIPSt4pairIiiES1_EvT_S3_RSaIT0_E>:
    1a8c:	f3 0f 1e fa          	endbr64 
    1a90:	55                   	push   %rbp
    1a91:	48 89 e5             	mov    %rsp,%rbp
    1a94:	48 83 ec 20          	sub    $0x20,%rsp
    1a98:	48 89 7d f8          	mov    %rdi,-0x8(%rbp)
    1a9c:	48 89 75 f0          	mov    %rsi,-0x10(%rbp)
    1aa0:	48 89 55 e8          	mov    %rdx,-0x18(%rbp)
    1aa4:	48 8b 55 f0          	mov    -0x10(%rbp),%rdx
    1aa8:	48 8b 45 f8          	mov    -0x8(%rbp),%rax
    1aac:	48 89 d6             	mov    %rdx,%rsi
    1aaf:	48 89 c7             	mov    %rax,%rdi
    1ab2:	e8 9a 01 00 00       	callq  1c51 <_ZSt8_DestroyIPSt4pairIiiEEvT_S3_>
    1ab7:	90                   	nop
    1ab8:	c9                   	leaveq 
    1ab9:	c3                   	retq   

0000000000001aba <_ZSt4moveIRSt4pairIiiEEONSt16remove_referenceIT_E4typeEOS4_>:
    1aba:	f3 0f 1e fa          	endbr64 
    1abe:	55                   	push   %rbp
    1abf:	48 89 e5             	mov    %rsp,%rbp
    1ac2:	48 89 7d f8          	mov    %rdi,-0x8(%rbp)
    1ac6:	48 8b 45 f8          	mov    -0x8(%rbp),%rax
    1aca:	5d                   	pop    %rbp
    1acb:	c3                   	retq   

0000000000001acc <_ZNSt6vectorISt4pairIiiESaIS1_EE12emplace_backIJS1_EEEvDpOT_>:
    1acc:	f3 0f 1e fa          	endbr64 
    1ad0:	55                   	push   %rbp
    1ad1:	48 89 e5             	mov    %rsp,%rbp
    1ad4:	53                   	push   %rbx
    1ad5:	48 83 ec 18          	sub    $0x18,%rsp
    1ad9:	48 89 7d e8          	mov    %rdi,-0x18(%rbp)
    1add:	48 89 75 e0          	mov    %rsi,-0x20(%rbp)
    1ae1:	48 8b 45 e8          	mov    -0x18(%rbp),%rax
    1ae5:	48 8b 50 08          	mov    0x8(%rax),%rdx
    1ae9:	48 8b 45 e8          	mov    -0x18(%rbp),%rax
    1aed:	48 8b 40 10          	mov    0x10(%rax),%rax
    1af1:	48 39 c2             	cmp    %rax,%rdx
    1af4:	74 3c                	je     1b32 <_ZNSt6vectorISt4pairIiiESaIS1_EE12emplace_backIJS1_EEEvDpOT_+0x66>
    1af6:	48 8b 45 e0          	mov    -0x20(%rbp),%rax
    1afa:	48 89 c7             	mov    %rax,%rdi
    1afd:	e8 79 01 00 00       	callq  1c7b <_ZSt7forwardISt4pairIiiEEOT_RNSt16remove_referenceIS2_E4typeE>
    1b02:	48 89 c2             	mov    %rax,%rdx
    1b05:	48 8b 45 e8          	mov    -0x18(%rbp),%rax
    1b09:	48 8b 48 08          	mov    0x8(%rax),%rcx
    1b0d:	48 8b 45 e8          	mov    -0x18(%rbp),%rax
    1b11:	48 89 ce             	mov    %rcx,%rsi
    1b14:	48 89 c7             	mov    %rax,%rdi
    1b17:	e8 71 01 00 00       	callq  1c8d <_ZNSt16allocator_traitsISaISt4pairIiiEEE9constructIS1_JS1_EEEvRS2_PT_DpOT0_>
    1b1c:	48 8b 45 e8          	mov    -0x18(%rbp),%rax
    1b20:	48 8b 40 08          	mov    0x8(%rax),%rax
    1b24:	48 8d 50 08          	lea    0x8(%rax),%rdx
    1b28:	48 8b 45 e8          	mov    -0x18(%rbp),%rax
    1b2c:	48 89 50 08          	mov    %rdx,0x8(%rax)
    1b30:	eb 30                	jmp    1b62 <_ZNSt6vectorISt4pairIiiESaIS1_EE12emplace_backIJS1_EEEvDpOT_+0x96>
    1b32:	48 8b 45 e0          	mov    -0x20(%rbp),%rax
    1b36:	48 89 c7             	mov    %rax,%rdi
    1b39:	e8 3d 01 00 00       	callq  1c7b <_ZSt7forwardISt4pairIiiEEOT_RNSt16remove_referenceIS2_E4typeE>
    1b3e:	48 89 c3             	mov    %rax,%rbx
    1b41:	48 8b 45 e8          	mov    -0x18(%rbp),%rax
    1b45:	48 89 c7             	mov    %rax,%rdi
    1b48:	e8 49 fd ff ff       	callq  1896 <_ZNSt6vectorISt4pairIiiESaIS1_EE3endEv>
    1b4d:	48 89 c1             	mov    %rax,%rcx
    1b50:	48 8b 45 e8          	mov    -0x18(%rbp),%rax
    1b54:	48 89 da             	mov    %rbx,%rdx
    1b57:	48 89 ce             	mov    %rcx,%rsi
    1b5a:	48 89 c7             	mov    %rax,%rdi
    1b5d:	e8 ae 01 00 00       	callq  1d10 <_ZNSt6vectorISt4pairIiiESaIS1_EE17_M_realloc_insertIJS1_EEEvN9__gnu_cxx17__normal_iteratorIPS1_S3_EEDpOT_>
    1b62:	90                   	nop
    1b63:	48 83 c4 18          	add    $0x18,%rsp
    1b67:	5b                   	pop    %rbx
    1b68:	5d                   	pop    %rbp
    1b69:	c3                   	retq   

0000000000001b6a <_ZN9__gnu_cxx17__normal_iteratorIPSt4pairIiiESt6vectorIS2_SaIS2_EEEC1ERKS3_>:
    1b6a:	f3 0f 1e fa          	endbr64 
    1b6e:	55                   	push   %rbp
    1b6f:	48 89 e5             	mov    %rsp,%rbp
    1b72:	48 89 7d f8          	mov    %rdi,-0x8(%rbp)
    1b76:	48 89 75 f0          	mov    %rsi,-0x10(%rbp)
    1b7a:	48 8b 45 f0          	mov    -0x10(%rbp),%rax
    1b7e:	48 8b 10             	mov    (%rax),%rdx
    1b81:	48 8b 45 f8          	mov    -0x8(%rbp),%rax
    1b85:	48 89 10             	mov    %rdx,(%rax)
    1b88:	90                   	nop
    1b89:	5d                   	pop    %rbp
    1b8a:	c3                   	retq   

0000000000001b8b <_ZSt6__sortIN9__gnu_cxx17__normal_iteratorIPSt4pairIiiESt6vectorIS3_SaIS3_EEEENS0_5__ops15_Iter_less_iterEEvT_SB_T0_>:
    1b8b:	f3 0f 1e fa          	endbr64 
    1b8f:	55                   	push   %rbp
    1b90:	48 89 e5             	mov    %rsp,%rbp
    1b93:	48 83 ec 20          	sub    $0x20,%rsp
    1b97:	48 89 7d f8          	mov    %rdi,-0x8(%rbp)
    1b9b:	48 89 75 f0          	mov    %rsi,-0x10(%rbp)
    1b9f:	48 8d 55 f0          	lea    -0x10(%rbp),%rdx
    1ba3:	48 8d 45 f8          	lea    -0x8(%rbp),%rax
    1ba7:	48 89 d6             	mov    %rdx,%rsi
    1baa:	48 89 c7             	mov    %rax,%rdi
    1bad:	e8 86 fd ff ff       	callq  1938 <_ZN9__gnu_cxxneIPSt4pairIiiESt6vectorIS2_SaIS2_EEEEbRKNS_17__normal_iteratorIT_T0_EESC_>
    1bb2:	84 c0                	test   %al,%al
    1bb4:	74 45                	je     1bfb <_ZSt6__sortIN9__gnu_cxx17__normal_iteratorIPSt4pairIiiESt6vectorIS3_SaIS3_EEEENS0_5__ops15_Iter_less_iterEEvT_SB_T0_+0x70>
    1bb6:	48 8d 55 f8          	lea    -0x8(%rbp),%rdx
    1bba:	48 8d 45 f0          	lea    -0x10(%rbp),%rax
    1bbe:	48 89 d6             	mov    %rdx,%rsi
    1bc1:	48 89 c7             	mov    %rax,%rdi
    1bc4:	e8 3e 04 00 00       	callq  2007 <_ZN9__gnu_cxxmiIPSt4pairIiiESt6vectorIS2_SaIS2_EEEENS_17__normal_iteratorIT_T0_E15difference_typeERKSA_SD_>
    1bc9:	48 89 c7             	mov    %rax,%rdi
    1bcc:	e8 0e fa ff ff       	callq  15df <_ZSt4__lgl>
    1bd1:	48 8d 14 00          	lea    (%rax,%rax,1),%rdx
    1bd5:	48 8b 4d f0          	mov    -0x10(%rbp),%rcx
    1bd9:	48 8b 45 f8          	mov    -0x8(%rbp),%rax
    1bdd:	48 89 ce             	mov    %rcx,%rsi
    1be0:	48 89 c7             	mov    %rax,%rdi
    1be3:	e8 63 04 00 00       	callq  204b <_ZSt16__introsort_loopIN9__gnu_cxx17__normal_iteratorIPSt4pairIiiESt6vectorIS3_SaIS3_EEEElNS0_5__ops15_Iter_less_iterEEvT_SB_T0_T1_>
    1be8:	48 8b 55 f0          	mov    -0x10(%rbp),%rdx
    1bec:	48 8b 45 f8          	mov    -0x8(%rbp),%rax
    1bf0:	48 89 d6             	mov    %rdx,%rsi
    1bf3:	48 89 c7             	mov    %rax,%rdi
    1bf6:	e8 08 05 00 00       	callq  2103 <_ZSt22__final_insertion_sortIN9__gnu_cxx17__normal_iteratorIPSt4pairIiiESt6vectorIS3_SaIS3_EEEENS0_5__ops15_Iter_less_iterEEvT_SB_T0_>
    1bfb:	90                   	nop
    1bfc:	c9                   	leaveq 
    1bfd:	c3                   	retq   

0000000000001bfe <_ZNK9__gnu_cxx17__normal_iteratorIPSt4pairIiiESt6vectorIS2_SaIS2_EEE4baseEv>:
    1bfe:	f3 0f 1e fa          	endbr64 
    1c02:	55                   	push   %rbp
    1c03:	48 89 e5             	mov    %rsp,%rbp
    1c06:	48 89 7d f8          	mov    %rdi,-0x8(%rbp)
    1c0a:	48 8b 45 f8          	mov    -0x8(%rbp),%rax
    1c0e:	5d                   	pop    %rbp
    1c0f:	c3                   	retq   

0000000000001c10 <_ZN9__gnu_cxx13new_allocatorISt4pairIiiEEC1Ev>:
    1c10:	f3 0f 1e fa          	endbr64 
    1c14:	55                   	push   %rbp
    1c15:	48 89 e5             	mov    %rsp,%rbp
    1c18:	48 89 7d f8          	mov    %rdi,-0x8(%rbp)
    1c1c:	90                   	nop
    1c1d:	5d                   	pop    %rbp
    1c1e:	c3                   	retq   

0000000000001c1f <_ZNSt16allocator_traitsISaISt4pairIiiEEE10deallocateERS2_PS1_m>:
    1c1f:	f3 0f 1e fa          	endbr64 
    1c23:	55                   	push   %rbp
    1c24:	48 89 e5             	mov    %rsp,%rbp
    1c27:	48 83 ec 20          	sub    $0x20,%rsp
    1c2b:	48 89 7d f8          	mov    %rdi,-0x8(%rbp)
    1c2f:	48 89 75 f0          	mov    %rsi,-0x10(%rbp)
    1c33:	48 89 55 e8          	mov    %rdx,-0x18(%rbp)
    1c37:	48 8b 55 e8          	mov    -0x18(%rbp),%rdx
    1c3b:	48 8b 4d f0          	mov    -0x10(%rbp),%rcx
    1c3f:	48 8b 45 f8          	mov    -0x8(%rbp),%rax
    1c43:	48 89 ce             	mov    %rcx,%rsi
    1c46:	48 89 c7             	mov    %rax,%rdi
    1c49:	e8 46 05 00 00       	callq  2194 <_ZN9__gnu_cxx13new_allocatorISt4pairIiiEE10deallocateEPS2_m>
    1c4e:	90                   	nop
    1c4f:	c9                   	leaveq 
    1c50:	c3                   	retq   

0000000000001c51 <_ZSt8_DestroyIPSt4pairIiiEEvT_S3_>:
    1c51:	f3 0f 1e fa          	endbr64 
    1c55:	55                   	push   %rbp
    1c56:	48 89 e5             	mov    %rsp,%rbp
    1c59:	48 83 ec 10          	sub    $0x10,%rsp
    1c5d:	48 89 7d f8          	mov    %rdi,-0x8(%rbp)
    1c61:	48 89 75 f0          	mov    %rsi,-0x10(%rbp)
    1c65:	48 8b 55 f0          	mov    -0x10(%rbp),%rdx
    1c69:	48 8b 45 f8          	mov    -0x8(%rbp),%rax
    1c6d:	48 89 d6             	mov    %rdx,%rsi
    1c70:	48 89 c7             	mov    %rax,%rdi
    1c73:	e8 43 05 00 00       	callq  21bb <_ZNSt12_Destroy_auxILb1EE9__destroyIPSt4pairIiiEEEvT_S5_>
    1c78:	90                   	nop
    1c79:	c9                   	leaveq 
    1c7a:	c3                   	retq   

0000000000001c7b <_ZSt7forwardISt4pairIiiEEOT_RNSt16remove_referenceIS2_E4typeE>:
    1c7b:	f3 0f 1e fa          	endbr64 
    1c7f:	55                   	push   %rbp
    1c80:	48 89 e5             	mov    %rsp,%rbp
    1c83:	48 89 7d f8          	mov    %rdi,-0x8(%rbp)
    1c87:	48 8b 45 f8          	mov    -0x8(%rbp),%rax
    1c8b:	5d                   	pop    %rbp
    1c8c:	c3                   	retq   

0000000000001c8d <_ZNSt16allocator_traitsISaISt4pairIiiEEE9constructIS1_JS1_EEEvRS2_PT_DpOT0_>:
    1c8d:	f3 0f 1e fa          	endbr64 
    1c91:	55                   	push   %rbp
    1c92:	48 89 e5             	mov    %rsp,%rbp
    1c95:	48 83 ec 20          	sub    $0x20,%rsp
    1c99:	48 89 7d f8          	mov    %rdi,-0x8(%rbp)
    1c9d:	48 89 75 f0          	mov    %rsi,-0x10(%rbp)
    1ca1:	48 89 55 e8          	mov    %rdx,-0x18(%rbp)
    1ca5:	48 8b 45 e8          	mov    -0x18(%rbp),%rax
    1ca9:	48 89 c7             	mov    %rax,%rdi
    1cac:	e8 ca ff ff ff       	callq  1c7b <_ZSt7forwardISt4pairIiiEEOT_RNSt16remove_referenceIS2_E4typeE>
    1cb1:	48 89 c2             	mov    %rax,%rdx
    1cb4:	48 8b 4d f0          	mov    -0x10(%rbp),%rcx
    1cb8:	48 8b 45 f8          	mov    -0x8(%rbp),%rax
    1cbc:	48 89 ce             	mov    %rcx,%rsi
    1cbf:	48 89 c7             	mov    %rax,%rdi
    1cc2:	e8 07 05 00 00       	callq  21ce <_ZN9__gnu_cxx13new_allocatorISt4pairIiiEE9constructIS2_JS2_EEEvPT_DpOT0_>
    1cc7:	90                   	nop
    1cc8:	c9                   	leaveq 
    1cc9:	c3                   	retq   

0000000000001cca <_ZNSt6vectorISt4pairIiiESaIS1_EE15_S_use_relocateEv>:
    1cca:	f3 0f 1e fa          	endbr64 
    1cce:	55                   	push   %rbp
    1ccf:	48 89 e5             	mov    %rsp,%rbp
    1cd2:	48 83 ec 10          	sub    $0x10,%rsp
    1cd6:	64 48 8b 04 25 28 00 	mov    %fs:0x28,%rax
    1cdd:	00 00 
    1cdf:	48 89 45 f8          	mov    %rax,-0x8(%rbp)
    1ce3:	31 c0                	xor    %eax,%eax
    1ce5:	e8 16 00 00 00       	callq  1d00 <_ZNSt6vectorISt4pairIiiESaIS1_EE19_S_nothrow_relocateESt17integral_constantIbLb1EE>
    1cea:	48 8b 55 f8          	mov    -0x8(%rbp),%rdx
    1cee:	64 48 33 14 25 28 00 	xor    %fs:0x28,%rdx
    1cf5:	00 00 
    1cf7:	74 05                	je     1cfe <_ZNSt6vectorISt4pairIiiESaIS1_EE15_S_use_relocateEv+0x34>
    1cf9:	e8 b2 f4 ff ff       	callq  11b0 <__stack_chk_fail@plt>
    1cfe:	c9                   	leaveq 
    1cff:	c3                   	retq   

0000000000001d00 <_ZNSt6vectorISt4pairIiiESaIS1_EE19_S_nothrow_relocateESt17integral_constantIbLb1EE>:
    1d00:	f3 0f 1e fa          	endbr64 
    1d04:	55                   	push   %rbp
    1d05:	48 89 e5             	mov    %rsp,%rbp
    1d08:	b8 01 00 00 00       	mov    $0x1,%eax
    1d0d:	5d                   	pop    %rbp
    1d0e:	c3                   	retq   
    1d0f:	90                   	nop

0000000000001d10 <_ZNSt6vectorISt4pairIiiESaIS1_EE17_M_realloc_insertIJS1_EEEvN9__gnu_cxx17__normal_iteratorIPS1_S3_EEDpOT_>:
    1d10:	f3 0f 1e fa          	endbr64 
    1d14:	55                   	push   %rbp
    1d15:	48 89 e5             	mov    %rsp,%rbp
    1d18:	53                   	push   %rbx
    1d19:	48 83 ec 68          	sub    $0x68,%rsp
    1d1d:	48 89 7d a8          	mov    %rdi,-0x58(%rbp)
    1d21:	48 89 75 a0          	mov    %rsi,-0x60(%rbp)
    1d25:	48 89 55 98          	mov    %rdx,-0x68(%rbp)
    1d29:	64 48 8b 04 25 28 00 	mov    %fs:0x28,%rax
    1d30:	00 00 
    1d32:	48 89 45 e8          	mov    %rax,-0x18(%rbp)
    1d36:	31 c0                	xor    %eax,%eax
    1d38:	48 8b 45 a8          	mov    -0x58(%rbp),%rax
    1d3c:	48 8d 15 6d 23 00 00 	lea    0x236d(%rip),%rdx        # 40b0 <_ZNSt8__detailL19_S_invalid_state_idE+0x8>
    1d43:	be 01 00 00 00       	mov    $0x1,%esi
    1d48:	48 89 c7             	mov    %rax,%rdi
    1d4b:	e8 c6 04 00 00       	callq  2216 <_ZNKSt6vectorISt4pairIiiESaIS1_EE12_M_check_lenEmPKc>
    1d50:	48 89 45 c0          	mov    %rax,-0x40(%rbp)
    1d54:	48 8b 45 a8          	mov    -0x58(%rbp),%rax
    1d58:	48 8b 00             	mov    (%rax),%rax
    1d5b:	48 89 45 c8          	mov    %rax,-0x38(%rbp)
    1d5f:	48 8b 45 a8          	mov    -0x58(%rbp),%rax
    1d63:	48 8b 40 08          	mov    0x8(%rax),%rax
    1d67:	48 89 45 d0          	mov    %rax,-0x30(%rbp)
    1d6b:	48 8b 45 a8          	mov    -0x58(%rbp),%rax
    1d6f:	48 89 c7             	mov    %rax,%rdi
    1d72:	e8 d3 fa ff ff       	callq  184a <_ZNSt6vectorISt4pairIiiESaIS1_EE5beginEv>
    1d77:	48 89 45 b0          	mov    %rax,-0x50(%rbp)
    1d7b:	48 8d 55 b0          	lea    -0x50(%rbp),%rdx
    1d7f:	48 8d 45 a0          	lea    -0x60(%rbp),%rax
    1d83:	48 89 d6             	mov    %rdx,%rsi
    1d86:	48 89 c7             	mov    %rax,%rdi
    1d89:	e8 79 02 00 00       	callq  2007 <_ZN9__gnu_cxxmiIPSt4pairIiiESt6vectorIS2_SaIS2_EEEENS_17__normal_iteratorIT_T0_E15difference_typeERKSA_SD_>
    1d8e:	48 89 45 d8          	mov    %rax,-0x28(%rbp)
    1d92:	48 8b 45 a8          	mov    -0x58(%rbp),%rax
    1d96:	48 8b 55 c0          	mov    -0x40(%rbp),%rdx
    1d9a:	48 89 d6             	mov    %rdx,%rsi
    1d9d:	48 89 c7             	mov    %rax,%rdi
    1da0:	e8 61 05 00 00       	callq  2306 <_ZNSt12_Vector_baseISt4pairIiiESaIS1_EE11_M_allocateEm>
    1da5:	48 89 45 e0          	mov    %rax,-0x20(%rbp)
    1da9:	48 8b 45 e0          	mov    -0x20(%rbp),%rax
    1dad:	48 89 45 b8          	mov    %rax,-0x48(%rbp)
    1db1:	48 8b 45 98          	mov    -0x68(%rbp),%rax
    1db5:	48 89 c7             	mov    %rax,%rdi
    1db8:	e8 be fe ff ff       	callq  1c7b <_ZSt7forwardISt4pairIiiEEOT_RNSt16remove_referenceIS2_E4typeE>
    1dbd:	48 89 c2             	mov    %rax,%rdx
    1dc0:	48 8b 45 d8          	mov    -0x28(%rbp),%rax
    1dc4:	48 8d 0c c5 00 00 00 	lea    0x0(,%rax,8),%rcx
    1dcb:	00 
    1dcc:	48 8b 45 e0          	mov    -0x20(%rbp),%rax
    1dd0:	48 01 c1             	add    %rax,%rcx
    1dd3:	48 8b 45 a8          	mov    -0x58(%rbp),%rax
    1dd7:	48 89 ce             	mov    %rcx,%rsi
    1dda:	48 89 c7             	mov    %rax,%rdi
    1ddd:	e8 ab fe ff ff       	callq  1c8d <_ZNSt16allocator_traitsISaISt4pairIiiEEE9constructIS1_JS1_EEEvRS2_PT_DpOT0_>
    1de2:	48 c7 45 b8 00 00 00 	movq   $0x0,-0x48(%rbp)
    1de9:	00 
    1dea:	e8 db fe ff ff       	callq  1cca <_ZNSt6vectorISt4pairIiiESaIS1_EE15_S_use_relocateEv>
    1def:	84 c0                	test   %al,%al
    1df1:	74 71                	je     1e64 <_ZNSt6vectorISt4pairIiiESaIS1_EE17_M_realloc_insertIJS1_EEEvN9__gnu_cxx17__normal_iteratorIPS1_S3_EEDpOT_+0x154>
    1df3:	48 8b 45 a8          	mov    -0x58(%rbp),%rax
    1df7:	48 89 c7             	mov    %rax,%rdi
    1dfa:	e8 7b fc ff ff       	callq  1a7a <_ZNSt12_Vector_baseISt4pairIiiESaIS1_EE19_M_get_Tp_allocatorEv>
    1dff:	48 89 c3             	mov    %rax,%rbx
    1e02:	48 8d 45 a0          	lea    -0x60(%rbp),%rax
    1e06:	48 89 c7             	mov    %rax,%rdi
    1e09:	e8 f0 fd ff ff       	callq  1bfe <_ZNK9__gnu_cxx17__normal_iteratorIPSt4pairIiiESt6vectorIS2_SaIS2_EEE4baseEv>
    1e0e:	48 8b 30             	mov    (%rax),%rsi
    1e11:	48 8b 55 e0          	mov    -0x20(%rbp),%rdx
    1e15:	48 8b 45 c8          	mov    -0x38(%rbp),%rax
    1e19:	48 89 d9             	mov    %rbx,%rcx
    1e1c:	48 89 c7             	mov    %rax,%rdi
    1e1f:	e8 19 05 00 00       	callq  233d <_ZNSt6vectorISt4pairIiiESaIS1_EE11_S_relocateEPS1_S4_S4_RS2_>
    1e24:	48 89 45 b8          	mov    %rax,-0x48(%rbp)
    1e28:	48 83 45 b8 08       	addq   $0x8,-0x48(%rbp)
    1e2d:	48 8b 45 a8          	mov    -0x58(%rbp),%rax
    1e31:	48 89 c7             	mov    %rax,%rdi
    1e34:	e8 41 fc ff ff       	callq  1a7a <_ZNSt12_Vector_baseISt4pairIiiESaIS1_EE19_M_get_Tp_allocatorEv>
    1e39:	48 89 c3             	mov    %rax,%rbx
    1e3c:	48 8d 45 a0          	lea    -0x60(%rbp),%rax
    1e40:	48 89 c7             	mov    %rax,%rdi
    1e43:	e8 b6 fd ff ff       	callq  1bfe <_ZNK9__gnu_cxx17__normal_iteratorIPSt4pairIiiESt6vectorIS2_SaIS2_EEE4baseEv>
    1e48:	48 8b 00             	mov    (%rax),%rax
    1e4b:	48 8b 55 b8          	mov    -0x48(%rbp),%rdx
    1e4f:	48 8b 75 d0          	mov    -0x30(%rbp),%rsi
    1e53:	48 89 d9             	mov    %rbx,%rcx
    1e56:	48 89 c7             	mov    %rax,%rdi
    1e59:	e8 df 04 00 00       	callq  233d <_ZNSt6vectorISt4pairIiiESaIS1_EE11_S_relocateEPS1_S4_S4_RS2_>
    1e5e:	48 89 45 b8          	mov    %rax,-0x48(%rbp)
    1e62:	eb 6f                	jmp    1ed3 <_ZNSt6vectorISt4pairIiiESaIS1_EE17_M_realloc_insertIJS1_EEEvN9__gnu_cxx17__normal_iteratorIPS1_S3_EEDpOT_+0x1c3>
    1e64:	48 8b 45 a8          	mov    -0x58(%rbp),%rax
    1e68:	48 89 c7             	mov    %rax,%rdi
    1e6b:	e8 0a fc ff ff       	callq  1a7a <_ZNSt12_Vector_baseISt4pairIiiESaIS1_EE19_M_get_Tp_allocatorEv>
    1e70:	48 89 c3             	mov    %rax,%rbx
    1e73:	48 8d 45 a0          	lea    -0x60(%rbp),%rax
    1e77:	48 89 c7             	mov    %rax,%rdi
    1e7a:	e8 7f fd ff ff       	callq  1bfe <_ZNK9__gnu_cxx17__normal_iteratorIPSt4pairIiiESt6vectorIS2_SaIS2_EEE4baseEv>
    1e7f:	48 8b 30             	mov    (%rax),%rsi
    1e82:	48 8b 55 e0          	mov    -0x20(%rbp),%rdx
    1e86:	48 8b 45 c8          	mov    -0x38(%rbp),%rax
    1e8a:	48 89 d9             	mov    %rbx,%rcx
    1e8d:	48 89 c7             	mov    %rax,%rdi
    1e90:	e8 01 05 00 00       	callq  2396 <_ZSt34__uninitialized_move_if_noexcept_aIPSt4pairIiiES2_SaIS1_EET0_T_S5_S4_RT1_>
    1e95:	48 89 45 b8          	mov    %rax,-0x48(%rbp)
    1e99:	48 83 45 b8 08       	addq   $0x8,-0x48(%rbp)
    1e9e:	48 8b 45 a8          	mov    -0x58(%rbp),%rax
    1ea2:	48 89 c7             	mov    %rax,%rdi
    1ea5:	e8 d0 fb ff ff       	callq  1a7a <_ZNSt12_Vector_baseISt4pairIiiESaIS1_EE19_M_get_Tp_allocatorEv>
    1eaa:	48 89 c3             	mov    %rax,%rbx
    1ead:	48 8d 45 a0          	lea    -0x60(%rbp),%rax
    1eb1:	48 89 c7             	mov    %rax,%rdi
    1eb4:	e8 45 fd ff ff       	callq  1bfe <_ZNK9__gnu_cxx17__normal_iteratorIPSt4pairIiiESt6vectorIS2_SaIS2_EEE4baseEv>
    1eb9:	48 8b 00             	mov    (%rax),%rax
    1ebc:	48 8b 55 b8          	mov    -0x48(%rbp),%rdx
    1ec0:	48 8b 75 d0          	mov    -0x30(%rbp),%rsi
    1ec4:	48 89 d9             	mov    %rbx,%rcx
    1ec7:	48 89 c7             	mov    %rax,%rdi
    1eca:	e8 c7 04 00 00       	callq  2396 <_ZSt34__uninitialized_move_if_noexcept_aIPSt4pairIiiES2_SaIS1_EET0_T_S5_S4_RT1_>
    1ecf:	48 89 45 b8          	mov    %rax,-0x48(%rbp)
    1ed3:	e8 f2 fd ff ff       	callq  1cca <_ZNSt6vectorISt4pairIiiESaIS1_EE15_S_use_relocateEv>
    1ed8:	83 f0 01             	xor    $0x1,%eax
    1edb:	84 c0                	test   %al,%al
    1edd:	74 22                	je     1f01 <_ZNSt6vectorISt4pairIiiESaIS1_EE17_M_realloc_insertIJS1_EEEvN9__gnu_cxx17__normal_iteratorIPS1_S3_EEDpOT_+0x1f1>
    1edf:	48 8b 45 a8          	mov    -0x58(%rbp),%rax
    1ee3:	48 89 c7             	mov    %rax,%rdi
    1ee6:	e8 8f fb ff ff       	callq  1a7a <_ZNSt12_Vector_baseISt4pairIiiESaIS1_EE19_M_get_Tp_allocatorEv>
    1eeb:	48 89 c2             	mov    %rax,%rdx
    1eee:	48 8b 4d d0          	mov    -0x30(%rbp),%rcx
    1ef2:	48 8b 45 c8          	mov    -0x38(%rbp),%rax
    1ef6:	48 89 ce             	mov    %rcx,%rsi
    1ef9:	48 89 c7             	mov    %rax,%rdi
    1efc:	e8 8b fb ff ff       	callq  1a8c <_ZSt8_DestroyIPSt4pairIiiES1_EvT_S3_RSaIT0_E>
    1f01:	48 8b 45 a8          	mov    -0x58(%rbp),%rax
    1f05:	48 8b 55 a8          	mov    -0x58(%rbp),%rdx
    1f09:	48 8b 52 10          	mov    0x10(%rdx),%rdx
    1f0d:	48 2b 55 c8          	sub    -0x38(%rbp),%rdx
    1f11:	48 c1 fa 03          	sar    $0x3,%rdx
    1f15:	48 8b 4d c8          	mov    -0x38(%rbp),%rcx
    1f19:	48 89 ce             	mov    %rcx,%rsi
    1f1c:	48 89 c7             	mov    %rax,%rdi
    1f1f:	e8 1c fb ff ff       	callq  1a40 <_ZNSt12_Vector_baseISt4pairIiiESaIS1_EE13_M_deallocateEPS1_m>
    1f24:	48 8b 45 a8          	mov    -0x58(%rbp),%rax
    1f28:	48 8b 55 e0          	mov    -0x20(%rbp),%rdx
    1f2c:	48 89 10             	mov    %rdx,(%rax)
    1f2f:	48 8b 45 a8          	mov    -0x58(%rbp),%rax
    1f33:	48 8b 55 b8          	mov    -0x48(%rbp),%rdx
    1f37:	48 89 50 08          	mov    %rdx,0x8(%rax)
    1f3b:	48 8b 45 c0          	mov    -0x40(%rbp),%rax
    1f3f:	48 8d 14 c5 00 00 00 	lea    0x0(,%rax,8),%rdx
    1f46:	00 
    1f47:	48 8b 45 e0          	mov    -0x20(%rbp),%rax
    1f4b:	48 01 c2             	add    %rax,%rdx
    1f4e:	48 8b 45 a8          	mov    -0x58(%rbp),%rax
    1f52:	48 89 50 10          	mov    %rdx,0x10(%rax)
    1f56:	90                   	nop
    1f57:	48 8b 45 e8          	mov    -0x18(%rbp),%rax
    1f5b:	64 48 33 04 25 28 00 	xor    %fs:0x28,%rax
    1f62:	00 00 
    1f64:	0f 84 96 00 00 00    	je     2000 <_ZNSt6vectorISt4pairIiiESaIS1_EE17_M_realloc_insertIJS1_EEEvN9__gnu_cxx17__normal_iteratorIPS1_S3_EEDpOT_+0x2f0>
    1f6a:	e9 8c 00 00 00       	jmpq   1ffb <_ZNSt6vectorISt4pairIiiESaIS1_EE17_M_realloc_insertIJS1_EEEvN9__gnu_cxx17__normal_iteratorIPS1_S3_EEDpOT_+0x2eb>
    1f6f:	f3 0f 1e fa          	endbr64 
    1f73:	48 89 c7             	mov    %rax,%rdi
    1f76:	e8 c5 f1 ff ff       	callq  1140 <__cxa_begin_catch@plt>
    1f7b:	48 83 7d b8 00       	cmpq   $0x0,-0x48(%rbp)
    1f80:	75 24                	jne    1fa6 <_ZNSt6vectorISt4pairIiiESaIS1_EE17_M_realloc_insertIJS1_EEEvN9__gnu_cxx17__normal_iteratorIPS1_S3_EEDpOT_+0x296>
    1f82:	48 8b 45 d8          	mov    -0x28(%rbp),%rax
    1f86:	48 8d 14 c5 00 00 00 	lea    0x0(,%rax,8),%rdx
    1f8d:	00 
    1f8e:	48 8b 45 e0          	mov    -0x20(%rbp),%rax
    1f92:	48 01 c2             	add    %rax,%rdx
    1f95:	48 8b 45 a8          	mov    -0x58(%rbp),%rax
    1f99:	48 89 d6             	mov    %rdx,%rsi
    1f9c:	48 89 c7             	mov    %rax,%rdi
    1f9f:	e8 4a 04 00 00       	callq  23ee <_ZNSt16allocator_traitsISaISt4pairIiiEEE7destroyIS1_EEvRS2_PT_>
    1fa4:	eb 22                	jmp    1fc8 <_ZNSt6vectorISt4pairIiiESaIS1_EE17_M_realloc_insertIJS1_EEEvN9__gnu_cxx17__normal_iteratorIPS1_S3_EEDpOT_+0x2b8>
    1fa6:	48 8b 45 a8          	mov    -0x58(%rbp),%rax
    1faa:	48 89 c7             	mov    %rax,%rdi
    1fad:	e8 c8 fa ff ff       	callq  1a7a <_ZNSt12_Vector_baseISt4pairIiiESaIS1_EE19_M_get_Tp_allocatorEv>
    1fb2:	48 89 c2             	mov    %rax,%rdx
    1fb5:	48 8b 4d b8          	mov    -0x48(%rbp),%rcx
    1fb9:	48 8b 45 e0          	mov    -0x20(%rbp),%rax
    1fbd:	48 89 ce             	mov    %rcx,%rsi
    1fc0:	48 89 c7             	mov    %rax,%rdi
    1fc3:	e8 c4 fa ff ff       	callq  1a8c <_ZSt8_DestroyIPSt4pairIiiES1_EvT_S3_RSaIT0_E>
    1fc8:	48 8b 45 a8          	mov    -0x58(%rbp),%rax
    1fcc:	48 8b 55 c0          	mov    -0x40(%rbp),%rdx
    1fd0:	48 8b 4d e0          	mov    -0x20(%rbp),%rcx
    1fd4:	48 89 ce             	mov    %rcx,%rsi
    1fd7:	48 89 c7             	mov    %rax,%rdi
    1fda:	e8 61 fa ff ff       	callq  1a40 <_ZNSt12_Vector_baseISt4pairIiiESaIS1_EE13_M_deallocateEPS1_m>
    1fdf:	e8 ec f1 ff ff       	callq  11d0 <__cxa_rethrow@plt>
    1fe4:	f3 0f 1e fa          	endbr64 
    1fe8:	48 89 c3             	mov    %rax,%rbx
    1feb:	e8 00 f2 ff ff       	callq  11f0 <__cxa_end_catch@plt>
    1ff0:	48 89 d8             	mov    %rbx,%rax
    1ff3:	48 89 c7             	mov    %rax,%rdi
    1ff6:	e8 15 f2 ff ff       	callq  1210 <_Unwind_Resume@plt>
    1ffb:	e8 b0 f1 ff ff       	callq  11b0 <__stack_chk_fail@plt>
    2000:	48 83 c4 68          	add    $0x68,%rsp
    2004:	5b                   	pop    %rbx
    2005:	5d                   	pop    %rbp
    2006:	c3                   	retq   

0000000000002007 <_ZN9__gnu_cxxmiIPSt4pairIiiESt6vectorIS2_SaIS2_EEEENS_17__normal_iteratorIT_T0_E15difference_typeERKSA_SD_>:
    2007:	f3 0f 1e fa          	endbr64 
    200b:	55                   	push   %rbp
    200c:	48 89 e5             	mov    %rsp,%rbp
    200f:	53                   	push   %rbx
    2010:	48 83 ec 18          	sub    $0x18,%rsp
    2014:	48 89 7d e8          	mov    %rdi,-0x18(%rbp)
    2018:	48 89 75 e0          	mov    %rsi,-0x20(%rbp)
    201c:	48 8b 45 e8          	mov    -0x18(%rbp),%rax
    2020:	48 89 c7             	mov    %rax,%rdi
    2023:	e8 d6 fb ff ff       	callq  1bfe <_ZNK9__gnu_cxx17__normal_iteratorIPSt4pairIiiESt6vectorIS2_SaIS2_EEE4baseEv>
    2028:	48 8b 18             	mov    (%rax),%rbx
    202b:	48 8b 45 e0          	mov    -0x20(%rbp),%rax
    202f:	48 89 c7             	mov    %rax,%rdi
    2032:	e8 c7 fb ff ff       	callq  1bfe <_ZNK9__gnu_cxx17__normal_iteratorIPSt4pairIiiESt6vectorIS2_SaIS2_EEE4baseEv>
    2037:	48 8b 00             	mov    (%rax),%rax
    203a:	48 29 c3             	sub    %rax,%rbx
    203d:	48 89 d8             	mov    %rbx,%rax
    2040:	48 c1 f8 03          	sar    $0x3,%rax
    2044:	48 83 c4 18          	add    $0x18,%rsp
    2048:	5b                   	pop    %rbx
    2049:	5d                   	pop    %rbp
    204a:	c3                   	retq   

000000000000204b <_ZSt16__introsort_loopIN9__gnu_cxx17__normal_iteratorIPSt4pairIiiESt6vectorIS3_SaIS3_EEEElNS0_5__ops15_Iter_less_iterEEvT_SB_T0_T1_>:
    204b:	f3 0f 1e fa          	endbr64 
    204f:	55                   	push   %rbp
    2050:	48 89 e5             	mov    %rsp,%rbp
    2053:	48 83 ec 30          	sub    $0x30,%rsp
    2057:	48 89 7d e8          	mov    %rdi,-0x18(%rbp)
    205b:	48 89 75 e0          	mov    %rsi,-0x20(%rbp)
    205f:	48 89 55 d8          	mov    %rdx,-0x28(%rbp)
    2063:	64 48 8b 04 25 28 00 	mov    %fs:0x28,%rax
    206a:	00 00 
    206c:	48 89 45 f8          	mov    %rax,-0x8(%rbp)
    2070:	31 c0                	xor    %eax,%eax
    2072:	48 8d 55 e8          	lea    -0x18(%rbp),%rdx
    2076:	48 8d 45 e0          	lea    -0x20(%rbp),%rax
    207a:	48 89 d6             	mov    %rdx,%rsi
    207d:	48 89 c7             	mov    %rax,%rdi
    2080:	e8 82 ff ff ff       	callq  2007 <_ZN9__gnu_cxxmiIPSt4pairIiiESt6vectorIS2_SaIS2_EEEENS_17__normal_iteratorIT_T0_E15difference_typeERKSA_SD_>
    2085:	48 83 f8 10          	cmp    $0x10,%rax
    2089:	0f 9f c0             	setg   %al
    208c:	84 c0                	test   %al,%al
    208e:	74 5d                	je     20ed <_ZSt16__introsort_loopIN9__gnu_cxx17__normal_iteratorIPSt4pairIiiESt6vectorIS3_SaIS3_EEEElNS0_5__ops15_Iter_less_iterEEvT_SB_T0_T1_+0xa2>
    2090:	48 83 7d d8 00       	cmpq   $0x0,-0x28(%rbp)
    2095:	75 19                	jne    20b0 <_ZSt16__introsort_loopIN9__gnu_cxx17__normal_iteratorIPSt4pairIiiESt6vectorIS3_SaIS3_EEEElNS0_5__ops15_Iter_less_iterEEvT_SB_T0_T1_+0x65>
    2097:	48 8b 55 e0          	mov    -0x20(%rbp),%rdx
    209b:	48 8b 4d e0          	mov    -0x20(%rbp),%rcx
    209f:	48 8b 45 e8          	mov    -0x18(%rbp),%rax
    20a3:	48 89 ce             	mov    %rcx,%rsi
    20a6:	48 89 c7             	mov    %rax,%rdi
    20a9:	e8 6a 03 00 00       	callq  2418 <_ZSt14__partial_sortIN9__gnu_cxx17__normal_iteratorIPSt4pairIiiESt6vectorIS3_SaIS3_EEEENS0_5__ops15_Iter_less_iterEEvT_SB_SB_T0_>
    20ae:	eb 3d                	jmp    20ed <_ZSt16__introsort_loopIN9__gnu_cxx17__normal_iteratorIPSt4pairIiiESt6vectorIS3_SaIS3_EEEElNS0_5__ops15_Iter_less_iterEEvT_SB_T0_T1_+0xa2>
    20b0:	48 83 6d d8 01       	subq   $0x1,-0x28(%rbp)
    20b5:	48 8b 55 e0          	mov    -0x20(%rbp),%rdx
    20b9:	48 8b 45 e8          	mov    -0x18(%rbp),%rax
    20bd:	48 89 d6             	mov    %rdx,%rsi
    20c0:	48 89 c7             	mov    %rax,%rdi
    20c3:	e8 99 03 00 00       	callq  2461 <_ZSt27__unguarded_partition_pivotIN9__gnu_cxx17__normal_iteratorIPSt4pairIiiESt6vectorIS3_SaIS3_EEEENS0_5__ops15_Iter_less_iterEET_SB_SB_T0_>
    20c8:	48 89 45 f0          	mov    %rax,-0x10(%rbp)
    20cc:	48 8b 55 d8          	mov    -0x28(%rbp),%rdx
    20d0:	48 8b 4d e0          	mov    -0x20(%rbp),%rcx
    20d4:	48 8b 45 f0          	mov    -0x10(%rbp),%rax
    20d8:	48 89 ce             	mov    %rcx,%rsi
    20db:	48 89 c7             	mov    %rax,%rdi
    20de:	e8 68 ff ff ff       	callq  204b <_ZSt16__introsort_loopIN9__gnu_cxx17__normal_iteratorIPSt4pairIiiESt6vectorIS3_SaIS3_EEEElNS0_5__ops15_Iter_less_iterEEvT_SB_T0_T1_>
    20e3:	48 8b 45 f0          	mov    -0x10(%rbp),%rax
    20e7:	48 89 45 e0          	mov    %rax,-0x20(%rbp)
    20eb:	eb 85                	jmp    2072 <_ZSt16__introsort_loopIN9__gnu_cxx17__normal_iteratorIPSt4pairIiiESt6vectorIS3_SaIS3_EEEElNS0_5__ops15_Iter_less_iterEEvT_SB_T0_T1_+0x27>
    20ed:	48 8b 45 f8          	mov    -0x8(%rbp),%rax
    20f1:	64 48 33 04 25 28 00 	xor    %fs:0x28,%rax
    20f8:	00 00 
    20fa:	74 05                	je     2101 <_ZSt16__introsort_loopIN9__gnu_cxx17__normal_iteratorIPSt4pairIiiESt6vectorIS3_SaIS3_EEEElNS0_5__ops15_Iter_less_iterEEvT_SB_T0_T1_+0xb6>
    20fc:	e8 af f0 ff ff       	callq  11b0 <__stack_chk_fail@plt>
    2101:	c9                   	leaveq 
    2102:	c3                   	retq   

0000000000002103 <_ZSt22__final_insertion_sortIN9__gnu_cxx17__normal_iteratorIPSt4pairIiiESt6vectorIS3_SaIS3_EEEENS0_5__ops15_Iter_less_iterEEvT_SB_T0_>:
    2103:	f3 0f 1e fa          	endbr64 
    2107:	55                   	push   %rbp
    2108:	48 89 e5             	mov    %rsp,%rbp
    210b:	48 83 ec 20          	sub    $0x20,%rsp
    210f:	48 89 7d f8          	mov    %rdi,-0x8(%rbp)
    2113:	48 89 75 f0          	mov    %rsi,-0x10(%rbp)
    2117:	48 8d 55 f8          	lea    -0x8(%rbp),%rdx
    211b:	48 8d 45 f0          	lea    -0x10(%rbp),%rax
    211f:	48 89 d6             	mov    %rdx,%rsi
    2122:	48 89 c7             	mov    %rax,%rdi
    2125:	e8 dd fe ff ff       	callq  2007 <_ZN9__gnu_cxxmiIPSt4pairIiiESt6vectorIS2_SaIS2_EEEENS_17__normal_iteratorIT_T0_E15difference_typeERKSA_SD_>
    212a:	48 83 f8 10          	cmp    $0x10,%rax
    212e:	0f 9f c0             	setg   %al
    2131:	84 c0                	test   %al,%al
    2133:	74 48                	je     217d <_ZSt22__final_insertion_sortIN9__gnu_cxx17__normal_iteratorIPSt4pairIiiESt6vectorIS3_SaIS3_EEEENS0_5__ops15_Iter_less_iterEEvT_SB_T0_+0x7a>
    2135:	48 8d 45 f8          	lea    -0x8(%rbp),%rax
    2139:	be 10 00 00 00       	mov    $0x10,%esi
    213e:	48 89 c7             	mov    %rax,%rdi
    2141:	e8 f2 03 00 00       	callq  2538 <_ZNK9__gnu_cxx17__normal_iteratorIPSt4pairIiiESt6vectorIS2_SaIS2_EEEplEl>
    2146:	48 89 c2             	mov    %rax,%rdx
    2149:	48 8b 45 f8          	mov    -0x8(%rbp),%rax
    214d:	48 89 d6             	mov    %rdx,%rsi
    2150:	48 89 c7             	mov    %rax,%rdi
    2153:	e8 46 04 00 00       	callq  259e <_ZSt16__insertion_sortIN9__gnu_cxx17__normal_iteratorIPSt4pairIiiESt6vectorIS3_SaIS3_EEEENS0_5__ops15_Iter_less_iterEEvT_SB_T0_>
    2158:	48 8d 45 f8          	lea    -0x8(%rbp),%rax
    215c:	be 10 00 00 00       	mov    $0x10,%esi
    2161:	48 89 c7             	mov    %rax,%rdi
    2164:	e8 cf 03 00 00       	callq  2538 <_ZNK9__gnu_cxx17__normal_iteratorIPSt4pairIiiESt6vectorIS2_SaIS2_EEEplEl>
    2169:	48 89 c2             	mov    %rax,%rdx
    216c:	48 8b 45 f0          	mov    -0x10(%rbp),%rax
    2170:	48 89 c6             	mov    %rax,%rsi
    2173:	48 89 d7             	mov    %rdx,%rdi
    2176:	e8 55 05 00 00       	callq  26d0 <_ZSt26__unguarded_insertion_sortIN9__gnu_cxx17__normal_iteratorIPSt4pairIiiESt6vectorIS3_SaIS3_EEEENS0_5__ops15_Iter_less_iterEEvT_SB_T0_>
    217b:	eb 13                	jmp    2190 <_ZSt22__final_insertion_sortIN9__gnu_cxx17__normal_iteratorIPSt4pairIiiESt6vectorIS3_SaIS3_EEEENS0_5__ops15_Iter_less_iterEEvT_SB_T0_+0x8d>
    217d:	48 8b 55 f0          	mov    -0x10(%rbp),%rdx
    2181:	48 8b 45 f8          	mov    -0x8(%rbp),%rax
    2185:	48 89 d6             	mov    %rdx,%rsi
    2188:	48 89 c7             	mov    %rax,%rdi
    218b:	e8 0e 04 00 00       	callq  259e <_ZSt16__insertion_sortIN9__gnu_cxx17__normal_iteratorIPSt4pairIiiESt6vectorIS3_SaIS3_EEEENS0_5__ops15_Iter_less_iterEEvT_SB_T0_>
    2190:	90                   	nop
    2191:	c9                   	leaveq 
    2192:	c3                   	retq   
    2193:	90                   	nop

0000000000002194 <_ZN9__gnu_cxx13new_allocatorISt4pairIiiEE10deallocateEPS2_m>:
    2194:	f3 0f 1e fa          	endbr64 
    2198:	55                   	push   %rbp
    2199:	48 89 e5             	mov    %rsp,%rbp
    219c:	48 83 ec 20          	sub    $0x20,%rsp
    21a0:	48 89 7d f8          	mov    %rdi,-0x8(%rbp)
    21a4:	48 89 75 f0          	mov    %rsi,-0x10(%rbp)
    21a8:	48 89 55 e8          	mov    %rdx,-0x18(%rbp)
    21ac:	48 8b 45 f0          	mov    -0x10(%rbp),%rax
    21b0:	48 89 c7             	mov    %rax,%rdi
    21b3:	e8 d8 ef ff ff       	callq  1190 <_ZdlPv@plt>
    21b8:	90                   	nop
    21b9:	c9                   	leaveq 
    21ba:	c3                   	retq   

00000000000021bb <_ZNSt12_Destroy_auxILb1EE9__destroyIPSt4pairIiiEEEvT_S5_>:
    21bb:	f3 0f 1e fa          	endbr64 
    21bf:	55                   	push   %rbp
    21c0:	48 89 e5             	mov    %rsp,%rbp
    21c3:	48 89 7d f8          	mov    %rdi,-0x8(%rbp)
    21c7:	48 89 75 f0          	mov    %rsi,-0x10(%rbp)
    21cb:	90                   	nop
    21cc:	5d                   	pop    %rbp
    21cd:	c3                   	retq   

00000000000021ce <_ZN9__gnu_cxx13new_allocatorISt4pairIiiEE9constructIS2_JS2_EEEvPT_DpOT0_>:
    21ce:	f3 0f 1e fa          	endbr64 
    21d2:	55                   	push   %rbp
    21d3:	48 89 e5             	mov    %rsp,%rbp
    21d6:	53                   	push   %rbx
    21d7:	48 83 ec 28          	sub    $0x28,%rsp
    21db:	48 89 7d e8          	mov    %rdi,-0x18(%rbp)
    21df:	48 89 75 e0          	mov    %rsi,-0x20(%rbp)
    21e3:	48 89 55 d8          	mov    %rdx,-0x28(%rbp)
    21e7:	48 8b 45 d8          	mov    -0x28(%rbp),%rax
    21eb:	48 89 c7             	mov    %rax,%rdi
    21ee:	e8 88 fa ff ff       	callq  1c7b <_ZSt7forwardISt4pairIiiEEOT_RNSt16remove_referenceIS2_E4typeE>
    21f3:	48 89 c3             	mov    %rax,%rbx
    21f6:	48 8b 45 e0          	mov    -0x20(%rbp),%rax
    21fa:	48 89 c6             	mov    %rax,%rsi
    21fd:	bf 08 00 00 00       	mov    $0x8,%edi
    2202:	e8 9f f3 ff ff       	callq  15a6 <_ZnwmPv>
    2207:	48 8b 13             	mov    (%rbx),%rdx
    220a:	48 89 10             	mov    %rdx,(%rax)
    220d:	90                   	nop
    220e:	48 83 c4 28          	add    $0x28,%rsp
    2212:	5b                   	pop    %rbx
    2213:	5d                   	pop    %rbp
    2214:	c3                   	retq   
    2215:	90                   	nop

0000000000002216 <_ZNKSt6vectorISt4pairIiiESaIS1_EE12_M_check_lenEmPKc>:
    2216:	f3 0f 1e fa          	endbr64 
    221a:	55                   	push   %rbp
    221b:	48 89 e5             	mov    %rsp,%rbp
    221e:	53                   	push   %rbx
    221f:	48 83 ec 48          	sub    $0x48,%rsp
    2223:	48 89 7d c8          	mov    %rdi,-0x38(%rbp)
    2227:	48 89 75 c0          	mov    %rsi,-0x40(%rbp)
    222b:	48 89 55 b8          	mov    %rdx,-0x48(%rbp)
    222f:	64 48 8b 04 25 28 00 	mov    %fs:0x28,%rax
    2236:	00 00 
    2238:	48 89 45 e8          	mov    %rax,-0x18(%rbp)
    223c:	31 c0                	xor    %eax,%eax
    223e:	48 8b 45 c8          	mov    -0x38(%rbp),%rax
    2242:	48 89 c7             	mov    %rax,%rdi
    2245:	e8 fe 04 00 00       	callq  2748 <_ZNKSt6vectorISt4pairIiiESaIS1_EE8max_sizeEv>
    224a:	48 89 c3             	mov    %rax,%rbx
    224d:	48 8b 45 c8          	mov    -0x38(%rbp),%rax
    2251:	48 89 c7             	mov    %rax,%rdi
    2254:	e8 15 05 00 00       	callq  276e <_ZNKSt6vectorISt4pairIiiESaIS1_EE4sizeEv>
    2259:	48 29 c3             	sub    %rax,%rbx
    225c:	48 89 da             	mov    %rbx,%rdx
    225f:	48 8b 45 c0          	mov    -0x40(%rbp),%rax
    2263:	48 39 c2             	cmp    %rax,%rdx
    2266:	0f 92 c0             	setb   %al
    2269:	84 c0                	test   %al,%al
    226b:	74 0c                	je     2279 <_ZNKSt6vectorISt4pairIiiESaIS1_EE12_M_check_lenEmPKc+0x63>
    226d:	48 8b 45 b8          	mov    -0x48(%rbp),%rax
    2271:	48 89 c7             	mov    %rax,%rdi
    2274:	e8 e7 ee ff ff       	callq  1160 <_ZSt20__throw_length_errorPKc@plt>
    2279:	48 8b 45 c8          	mov    -0x38(%rbp),%rax
    227d:	48 89 c7             	mov    %rax,%rdi
    2280:	e8 e9 04 00 00       	callq  276e <_ZNKSt6vectorISt4pairIiiESaIS1_EE4sizeEv>
    2285:	48 89 c3             	mov    %rax,%rbx
    2288:	48 8b 45 c8          	mov    -0x38(%rbp),%rax
    228c:	48 89 c7             	mov    %rax,%rdi
    228f:	e8 da 04 00 00       	callq  276e <_ZNKSt6vectorISt4pairIiiESaIS1_EE4sizeEv>
    2294:	48 89 45 d8          	mov    %rax,-0x28(%rbp)
    2298:	48 8d 55 c0          	lea    -0x40(%rbp),%rdx
    229c:	48 8d 45 d8          	lea    -0x28(%rbp),%rax
    22a0:	48 89 d6             	mov    %rdx,%rsi
    22a3:	48 89 c7             	mov    %rax,%rdi
    22a6:	e8 e8 f3 ff ff       	callq  1693 <_ZSt3maxImERKT_S2_S2_>
    22ab:	48 8b 00             	mov    (%rax),%rax
    22ae:	48 01 d8             	add    %rbx,%rax
    22b1:	48 89 45 e0          	mov    %rax,-0x20(%rbp)
    22b5:	48 8b 45 c8          	mov    -0x38(%rbp),%rax
    22b9:	48 89 c7             	mov    %rax,%rdi
    22bc:	e8 ad 04 00 00       	callq  276e <_ZNKSt6vectorISt4pairIiiESaIS1_EE4sizeEv>
    22c1:	48 39 45 e0          	cmp    %rax,-0x20(%rbp)
    22c5:	72 12                	jb     22d9 <_ZNKSt6vectorISt4pairIiiESaIS1_EE12_M_check_lenEmPKc+0xc3>
    22c7:	48 8b 45 c8          	mov    -0x38(%rbp),%rax
    22cb:	48 89 c7             	mov    %rax,%rdi
    22ce:	e8 75 04 00 00       	callq  2748 <_ZNKSt6vectorISt4pairIiiESaIS1_EE8max_sizeEv>
    22d3:	48 39 45 e0          	cmp    %rax,-0x20(%rbp)
    22d7:	76 0e                	jbe    22e7 <_ZNKSt6vectorISt4pairIiiESaIS1_EE12_M_check_lenEmPKc+0xd1>
    22d9:	48 8b 45 c8          	mov    -0x38(%rbp),%rax
    22dd:	48 89 c7             	mov    %rax,%rdi
    22e0:	e8 63 04 00 00       	callq  2748 <_ZNKSt6vectorISt4pairIiiESaIS1_EE8max_sizeEv>
    22e5:	eb 04                	jmp    22eb <_ZNKSt6vectorISt4pairIiiESaIS1_EE12_M_check_lenEmPKc+0xd5>
    22e7:	48 8b 45 e0          	mov    -0x20(%rbp),%rax
    22eb:	48 8b 4d e8          	mov    -0x18(%rbp),%rcx
    22ef:	64 48 33 0c 25 28 00 	xor    %fs:0x28,%rcx
    22f6:	00 00 
    22f8:	74 05                	je     22ff <_ZNKSt6vectorISt4pairIiiESaIS1_EE12_M_check_lenEmPKc+0xe9>
    22fa:	e8 b1 ee ff ff       	callq  11b0 <__stack_chk_fail@plt>
    22ff:	48 83 c4 48          	add    $0x48,%rsp
    2303:	5b                   	pop    %rbx
    2304:	5d                   	pop    %rbp
    2305:	c3                   	retq   

0000000000002306 <_ZNSt12_Vector_baseISt4pairIiiESaIS1_EE11_M_allocateEm>:
    2306:	f3 0f 1e fa          	endbr64 
    230a:	55                   	push   %rbp
    230b:	48 89 e5             	mov    %rsp,%rbp
    230e:	48 83 ec 10          	sub    $0x10,%rsp
    2312:	48 89 7d f8          	mov    %rdi,-0x8(%rbp)
    2316:	48 89 75 f0          	mov    %rsi,-0x10(%rbp)
    231a:	48 83 7d f0 00       	cmpq   $0x0,-0x10(%rbp)
    231f:	74 15                	je     2336 <_ZNSt12_Vector_baseISt4pairIiiESaIS1_EE11_M_allocateEm+0x30>
    2321:	48 8b 45 f8          	mov    -0x8(%rbp),%rax
    2325:	48 8b 55 f0          	mov    -0x10(%rbp),%rdx
    2329:	48 89 d6             	mov    %rdx,%rsi
    232c:	48 89 c7             	mov    %rax,%rdi
    232f:	e8 61 04 00 00       	callq  2795 <_ZNSt16allocator_traitsISaISt4pairIiiEEE8allocateERS2_m>
    2334:	eb 05                	jmp    233b <_ZNSt12_Vector_baseISt4pairIiiESaIS1_EE11_M_allocateEm+0x35>
    2336:	b8 00 00 00 00       	mov    $0x0,%eax
    233b:	c9                   	leaveq 
    233c:	c3                   	retq   

000000000000233d <_ZNSt6vectorISt4pairIiiESaIS1_EE11_S_relocateEPS1_S4_S4_RS2_>:
    233d:	f3 0f 1e fa          	endbr64 
    2341:	55                   	push   %rbp
    2342:	48 89 e5             	mov    %rsp,%rbp
    2345:	48 83 ec 30          	sub    $0x30,%rsp
    2349:	48 89 7d e8          	mov    %rdi,-0x18(%rbp)
    234d:	48 89 75 e0          	mov    %rsi,-0x20(%rbp)
    2351:	48 89 55 d8          	mov    %rdx,-0x28(%rbp)
    2355:	48 89 4d d0          	mov    %rcx,-0x30(%rbp)
    2359:	64 48 8b 04 25 28 00 	mov    %fs:0x28,%rax
    2360:	00 00 
    2362:	48 89 45 f8          	mov    %rax,-0x8(%rbp)
    2366:	31 c0                	xor    %eax,%eax
    2368:	48 8b 4d d0          	mov    -0x30(%rbp),%rcx
    236c:	48 8b 55 d8          	mov    -0x28(%rbp),%rdx
    2370:	48 8b 75 e0          	mov    -0x20(%rbp),%rsi
    2374:	48 8b 45 e8          	mov    -0x18(%rbp),%rax
    2378:	48 89 c7             	mov    %rax,%rdi
    237b:	e8 43 04 00 00       	callq  27c3 <_ZNSt6vectorISt4pairIiiESaIS1_EE14_S_do_relocateEPS1_S4_S4_RS2_St17integral_constantIbLb1EE>
    2380:	48 8b 7d f8          	mov    -0x8(%rbp),%rdi
    2384:	64 48 33 3c 25 28 00 	xor    %fs:0x28,%rdi
    238b:	00 00 
    238d:	74 05                	je     2394 <_ZNSt6vectorISt4pairIiiESaIS1_EE11_S_relocateEPS1_S4_S4_RS2_+0x57>
    238f:	e8 1c ee ff ff       	callq  11b0 <__stack_chk_fail@plt>
    2394:	c9                   	leaveq 
    2395:	c3                   	retq   

0000000000002396 <_ZSt34__uninitialized_move_if_noexcept_aIPSt4pairIiiES2_SaIS1_EET0_T_S5_S4_RT1_>:
    2396:	f3 0f 1e fa          	endbr64 
    239a:	55                   	push   %rbp
    239b:	48 89 e5             	mov    %rsp,%rbp
    239e:	53                   	push   %rbx
    239f:	48 83 ec 28          	sub    $0x28,%rsp
    23a3:	48 89 7d e8          	mov    %rdi,-0x18(%rbp)
    23a7:	48 89 75 e0          	mov    %rsi,-0x20(%rbp)
    23ab:	48 89 55 d8          	mov    %rdx,-0x28(%rbp)
    23af:	48 89 4d d0          	mov    %rcx,-0x30(%rbp)
    23b3:	48 8b 45 e0          	mov    -0x20(%rbp),%rax
    23b7:	48 89 c7             	mov    %rax,%rdi
    23ba:	e8 3a 04 00 00       	callq  27f9 <_ZSt32__make_move_if_noexcept_iteratorISt4pairIiiESt13move_iteratorIPS1_EET0_PT_>
    23bf:	48 89 c3             	mov    %rax,%rbx
    23c2:	48 8b 45 e8          	mov    -0x18(%rbp),%rax
    23c6:	48 89 c7             	mov    %rax,%rdi
    23c9:	e8 2b 04 00 00       	callq  27f9 <_ZSt32__make_move_if_noexcept_iteratorISt4pairIiiESt13move_iteratorIPS1_EET0_PT_>
    23ce:	48 89 c7             	mov    %rax,%rdi
    23d1:	48 8b 55 d0          	mov    -0x30(%rbp),%rdx
    23d5:	48 8b 45 d8          	mov    -0x28(%rbp),%rax
    23d9:	48 89 d1             	mov    %rdx,%rcx
    23dc:	48 89 c2             	mov    %rax,%rdx
    23df:	48 89 de             	mov    %rbx,%rsi
    23e2:	e8 5e 04 00 00       	callq  2845 <_ZSt22__uninitialized_copy_aISt13move_iteratorIPSt4pairIiiEES3_S2_ET0_T_S6_S5_RSaIT1_E>
    23e7:	48 83 c4 28          	add    $0x28,%rsp
    23eb:	5b                   	pop    %rbx
    23ec:	5d                   	pop    %rbp
    23ed:	c3                   	retq   

00000000000023ee <_ZNSt16allocator_traitsISaISt4pairIiiEEE7destroyIS1_EEvRS2_PT_>:
    23ee:	f3 0f 1e fa          	endbr64 
    23f2:	55                   	push   %rbp
    23f3:	48 89 e5             	mov    %rsp,%rbp
    23f6:	48 83 ec 10          	sub    $0x10,%rsp
    23fa:	48 89 7d f8          	mov    %rdi,-0x8(%rbp)
    23fe:	48 89 75 f0          	mov    %rsi,-0x10(%rbp)
    2402:	48 8b 55 f0          	mov    -0x10(%rbp),%rdx
    2406:	48 8b 45 f8          	mov    -0x8(%rbp),%rax
    240a:	48 89 d6             	mov    %rdx,%rsi
    240d:	48 89 c7             	mov    %rax,%rdi
    2410:	e8 65 04 00 00       	callq  287a <_ZN9__gnu_cxx13new_allocatorISt4pairIiiEE7destroyIS2_EEvPT_>
    2415:	90                   	nop
    2416:	c9                   	leaveq 
    2417:	c3                   	retq   

0000000000002418 <_ZSt14__partial_sortIN9__gnu_cxx17__normal_iteratorIPSt4pairIiiESt6vectorIS3_SaIS3_EEEENS0_5__ops15_Iter_less_iterEEvT_SB_SB_T0_>:
    2418:	f3 0f 1e fa          	endbr64 
    241c:	55                   	push   %rbp
    241d:	48 89 e5             	mov    %rsp,%rbp
    2420:	48 83 ec 20          	sub    $0x20,%rsp
    2424:	48 89 7d f8          	mov    %rdi,-0x8(%rbp)
    2428:	48 89 75 f0          	mov    %rsi,-0x10(%rbp)
    242c:	48 89 55 e8          	mov    %rdx,-0x18(%rbp)
    2430:	48 8b 55 e8          	mov    -0x18(%rbp),%rdx
    2434:	48 8b 4d f0          	mov    -0x10(%rbp),%rcx
    2438:	48 8b 45 f8          	mov    -0x8(%rbp),%rax
    243c:	48 89 ce             	mov    %rcx,%rsi
    243f:	48 89 c7             	mov    %rax,%rdi
    2442:	e8 46 04 00 00       	callq  288d <_ZSt13__heap_selectIN9__gnu_cxx17__normal_iteratorIPSt4pairIiiESt6vectorIS3_SaIS3_EEEENS0_5__ops15_Iter_less_iterEEvT_SB_SB_T0_>
    2447:	48 8d 55 e7          	lea    -0x19(%rbp),%rdx
    244b:	48 8b 4d f0          	mov    -0x10(%rbp),%rcx
    244f:	48 8b 45 f8          	mov    -0x8(%rbp),%rax
    2453:	48 89 ce             	mov    %rcx,%rsi
    2456:	48 89 c7             	mov    %rax,%rdi
    2459:	e8 e4 04 00 00       	callq  2942 <_ZSt11__sort_heapIN9__gnu_cxx17__normal_iteratorIPSt4pairIiiESt6vectorIS3_SaIS3_EEEENS0_5__ops15_Iter_less_iterEEvT_SB_RT0_>
    245e:	90                   	nop
    245f:	c9                   	leaveq 
    2460:	c3                   	retq   

0000000000002461 <_ZSt27__unguarded_partition_pivotIN9__gnu_cxx17__normal_iteratorIPSt4pairIiiESt6vectorIS3_SaIS3_EEEENS0_5__ops15_Iter_less_iterEET_SB_SB_T0_>:
    2461:	f3 0f 1e fa          	endbr64 
    2465:	55                   	push   %rbp
    2466:	48 89 e5             	mov    %rsp,%rbp
    2469:	53                   	push   %rbx
    246a:	48 83 ec 38          	sub    $0x38,%rsp
    246e:	48 89 7d d8          	mov    %rdi,-0x28(%rbp)
    2472:	48 89 75 d0          	mov    %rsi,-0x30(%rbp)
    2476:	64 48 8b 04 25 28 00 	mov    %fs:0x28,%rax
    247d:	00 00 
    247f:	48 89 45 e8          	mov    %rax,-0x18(%rbp)
    2483:	31 c0                	xor    %eax,%eax
    2485:	48 8d 55 d8          	lea    -0x28(%rbp),%rdx
    2489:	48 8d 45 d0          	lea    -0x30(%rbp),%rax
    248d:	48 89 d6             	mov    %rdx,%rsi
    2490:	48 89 c7             	mov    %rax,%rdi
    2493:	e8 6f fb ff ff       	callq  2007 <_ZN9__gnu_cxxmiIPSt4pairIiiESt6vectorIS2_SaIS2_EEEENS_17__normal_iteratorIT_T0_E15difference_typeERKSA_SD_>
    2498:	48 89 c2             	mov    %rax,%rdx
    249b:	48 c1 ea 3f          	shr    $0x3f,%rdx
    249f:	48 01 d0             	add    %rdx,%rax
    24a2:	48 d1 f8             	sar    %rax
    24a5:	48 89 c2             	mov    %rax,%rdx
    24a8:	48 8d 45 d8          	lea    -0x28(%rbp),%rax
    24ac:	48 89 d6             	mov    %rdx,%rsi
    24af:	48 89 c7             	mov    %rax,%rdi
    24b2:	e8 81 00 00 00       	callq  2538 <_ZNK9__gnu_cxx17__normal_iteratorIPSt4pairIiiESt6vectorIS2_SaIS2_EEEplEl>
    24b7:	48 89 45 e0          	mov    %rax,-0x20(%rbp)
    24bb:	48 8d 45 d0          	lea    -0x30(%rbp),%rax
    24bf:	be 01 00 00 00       	mov    $0x1,%esi
    24c4:	48 89 c7             	mov    %rax,%rdi
    24c7:	e8 d6 04 00 00       	callq  29a2 <_ZNK9__gnu_cxx17__normal_iteratorIPSt4pairIiiESt6vectorIS2_SaIS2_EEEmiEl>
    24cc:	48 89 c3             	mov    %rax,%rbx
    24cf:	48 8d 45 d8          	lea    -0x28(%rbp),%rax
    24d3:	be 01 00 00 00       	mov    $0x1,%esi
    24d8:	48 89 c7             	mov    %rax,%rdi
    24db:	e8 58 00 00 00       	callq  2538 <_ZNK9__gnu_cxx17__normal_iteratorIPSt4pairIiiESt6vectorIS2_SaIS2_EEEplEl>
    24e0:	48 89 c6             	mov    %rax,%rsi
    24e3:	48 8b 55 e0          	mov    -0x20(%rbp),%rdx
    24e7:	48 8b 45 d8          	mov    -0x28(%rbp),%rax
    24eb:	48 89 d9             	mov    %rbx,%rcx
    24ee:	48 89 c7             	mov    %rax,%rdi
    24f1:	e8 5c 05 00 00       	callq  2a52 <_ZSt22__move_median_to_firstIN9__gnu_cxx17__normal_iteratorIPSt4pairIiiESt6vectorIS3_SaIS3_EEEENS0_5__ops15_Iter_less_iterEEvT_SB_SB_SB_T0_>
    24f6:	48 8d 45 d8          	lea    -0x28(%rbp),%rax
    24fa:	be 01 00 00 00       	mov    $0x1,%esi
    24ff:	48 89 c7             	mov    %rax,%rdi
    2502:	e8 31 00 00 00       	callq  2538 <_ZNK9__gnu_cxx17__normal_iteratorIPSt4pairIiiESt6vectorIS2_SaIS2_EEEplEl>
    2507:	48 89 c1             	mov    %rax,%rcx
    250a:	48 8b 55 d8          	mov    -0x28(%rbp),%rdx
    250e:	48 8b 45 d0          	mov    -0x30(%rbp),%rax
    2512:	48 89 c6             	mov    %rax,%rsi
    2515:	48 89 cf             	mov    %rcx,%rdi
    2518:	e8 5d 06 00 00       	callq  2b7a <_ZSt21__unguarded_partitionIN9__gnu_cxx17__normal_iteratorIPSt4pairIiiESt6vectorIS3_SaIS3_EEEENS0_5__ops15_Iter_less_iterEET_SB_SB_SB_T0_>
    251d:	48 8b 5d e8          	mov    -0x18(%rbp),%rbx
    2521:	64 48 33 1c 25 28 00 	xor    %fs:0x28,%rbx
    2528:	00 00 
    252a:	74 05                	je     2531 <_ZSt27__unguarded_partition_pivotIN9__gnu_cxx17__normal_iteratorIPSt4pairIiiESt6vectorIS3_SaIS3_EEEENS0_5__ops15_Iter_less_iterEET_SB_SB_T0_+0xd0>
    252c:	e8 7f ec ff ff       	callq  11b0 <__stack_chk_fail@plt>
    2531:	48 83 c4 38          	add    $0x38,%rsp
    2535:	5b                   	pop    %rbx
    2536:	5d                   	pop    %rbp
    2537:	c3                   	retq   

0000000000002538 <_ZNK9__gnu_cxx17__normal_iteratorIPSt4pairIiiESt6vectorIS2_SaIS2_EEEplEl>:
    2538:	f3 0f 1e fa          	endbr64 
    253c:	55                   	push   %rbp
    253d:	48 89 e5             	mov    %rsp,%rbp
    2540:	48 83 ec 30          	sub    $0x30,%rsp
    2544:	48 89 7d d8          	mov    %rdi,-0x28(%rbp)
    2548:	48 89 75 d0          	mov    %rsi,-0x30(%rbp)
    254c:	64 48 8b 04 25 28 00 	mov    %fs:0x28,%rax
    2553:	00 00 
    2555:	48 89 45 f8          	mov    %rax,-0x8(%rbp)
    2559:	31 c0                	xor    %eax,%eax
    255b:	48 8b 45 d8          	mov    -0x28(%rbp),%rax
    255f:	48 8b 00             	mov    (%rax),%rax
    2562:	48 8b 55 d0          	mov    -0x30(%rbp),%rdx
    2566:	48 c1 e2 03          	shl    $0x3,%rdx
    256a:	48 01 d0             	add    %rdx,%rax
    256d:	48 89 45 e8          	mov    %rax,-0x18(%rbp)
    2571:	48 8d 55 e8          	lea    -0x18(%rbp),%rdx
    2575:	48 8d 45 f0          	lea    -0x10(%rbp),%rax
    2579:	48 89 d6             	mov    %rdx,%rsi
    257c:	48 89 c7             	mov    %rax,%rdi
    257f:	e8 e6 f5 ff ff       	callq  1b6a <_ZN9__gnu_cxx17__normal_iteratorIPSt4pairIiiESt6vectorIS2_SaIS2_EEEC1ERKS3_>
    2584:	48 8b 45 f0          	mov    -0x10(%rbp),%rax
    2588:	48 8b 4d f8          	mov    -0x8(%rbp),%rcx
    258c:	64 48 33 0c 25 28 00 	xor    %fs:0x28,%rcx
    2593:	00 00 
    2595:	74 05                	je     259c <_ZNK9__gnu_cxx17__normal_iteratorIPSt4pairIiiESt6vectorIS2_SaIS2_EEEplEl+0x64>
    2597:	e8 14 ec ff ff       	callq  11b0 <__stack_chk_fail@plt>
    259c:	c9                   	leaveq 
    259d:	c3                   	retq   

000000000000259e <_ZSt16__insertion_sortIN9__gnu_cxx17__normal_iteratorIPSt4pairIiiESt6vectorIS3_SaIS3_EEEENS0_5__ops15_Iter_less_iterEEvT_SB_T0_>:
    259e:	f3 0f 1e fa          	endbr64 
    25a2:	55                   	push   %rbp
    25a3:	48 89 e5             	mov    %rsp,%rbp
    25a6:	53                   	push   %rbx
    25a7:	48 83 ec 48          	sub    $0x48,%rsp
    25ab:	48 89 7d c8          	mov    %rdi,-0x38(%rbp)
    25af:	48 89 75 c0          	mov    %rsi,-0x40(%rbp)
    25b3:	64 48 8b 04 25 28 00 	mov    %fs:0x28,%rax
    25ba:	00 00 
    25bc:	48 89 45 e8          	mov    %rax,-0x18(%rbp)
    25c0:	31 c0                	xor    %eax,%eax
    25c2:	48 8d 55 c0          	lea    -0x40(%rbp),%rdx
    25c6:	48 8d 45 c8          	lea    -0x38(%rbp),%rax
    25ca:	48 89 d6             	mov    %rdx,%rsi
    25cd:	48 89 c7             	mov    %rax,%rdi
    25d0:	e8 61 06 00 00       	callq  2c36 <_ZN9__gnu_cxxeqIPSt4pairIiiESt6vectorIS2_SaIS2_EEEEbRKNS_17__normal_iteratorIT_T0_EESC_>
    25d5:	84 c0                	test   %al,%al
    25d7:	0f 85 d7 00 00 00    	jne    26b4 <_ZSt16__insertion_sortIN9__gnu_cxx17__normal_iteratorIPSt4pairIiiESt6vectorIS3_SaIS3_EEEENS0_5__ops15_Iter_less_iterEEvT_SB_T0_+0x116>
    25dd:	48 8d 45 c8          	lea    -0x38(%rbp),%rax
    25e1:	be 01 00 00 00       	mov    $0x1,%esi
    25e6:	48 89 c7             	mov    %rax,%rdi
    25e9:	e8 4a ff ff ff       	callq  2538 <_ZNK9__gnu_cxx17__normal_iteratorIPSt4pairIiiESt6vectorIS2_SaIS2_EEEplEl>
    25ee:	48 89 45 d8          	mov    %rax,-0x28(%rbp)
    25f2:	48 8d 55 c0          	lea    -0x40(%rbp),%rdx
    25f6:	48 8d 45 d8          	lea    -0x28(%rbp),%rax
    25fa:	48 89 d6             	mov    %rdx,%rsi
    25fd:	48 89 c7             	mov    %rax,%rdi
    2600:	e8 33 f3 ff ff       	callq  1938 <_ZN9__gnu_cxxneIPSt4pairIiiESt6vectorIS2_SaIS2_EEEEbRKNS_17__normal_iteratorIT_T0_EESC_>
    2605:	84 c0                	test   %al,%al
    2607:	0f 84 a8 00 00 00    	je     26b5 <_ZSt16__insertion_sortIN9__gnu_cxx17__normal_iteratorIPSt4pairIiiESt6vectorIS3_SaIS3_EEEENS0_5__ops15_Iter_less_iterEEvT_SB_T0_+0x117>
    260d:	48 8b 55 c8          	mov    -0x38(%rbp),%rdx
    2611:	48 8b 4d d8          	mov    -0x28(%rbp),%rcx
    2615:	48 8d 45 bf          	lea    -0x41(%rbp),%rax
    2619:	48 89 ce             	mov    %rcx,%rsi
    261c:	48 89 c7             	mov    %rax,%rdi
    261f:	e8 e8 03 00 00       	callq  2a0c <_ZNK9__gnu_cxx5__ops15_Iter_less_iterclINS_17__normal_iteratorIPSt4pairIiiESt6vectorIS5_SaIS5_EEEESA_EEbT_T0_>
    2624:	84 c0                	test   %al,%al
    2626:	74 6a                	je     2692 <_ZSt16__insertion_sortIN9__gnu_cxx17__normal_iteratorIPSt4pairIiiESt6vectorIS3_SaIS3_EEEENS0_5__ops15_Iter_less_iterEEvT_SB_T0_+0xf4>
    2628:	48 8d 45 d8          	lea    -0x28(%rbp),%rax
    262c:	48 89 c7             	mov    %rax,%rdi
    262f:	e8 68 f3 ff ff       	callq  199c <_ZNK9__gnu_cxx17__normal_iteratorIPSt4pairIiiESt6vectorIS2_SaIS2_EEEdeEv>
    2634:	48 89 c7             	mov    %rax,%rdi
    2637:	e8 7e f4 ff ff       	callq  1aba <_ZSt4moveIRSt4pairIiiEEONSt16remove_referenceIT_E4typeEOS4_>
    263c:	48 8b 00             	mov    (%rax),%rax
    263f:	48 89 45 e0          	mov    %rax,-0x20(%rbp)
    2643:	48 8d 45 d8          	lea    -0x28(%rbp),%rax
    2647:	be 01 00 00 00       	mov    $0x1,%esi
    264c:	48 89 c7             	mov    %rax,%rdi
    264f:	e8 e4 fe ff ff       	callq  2538 <_ZNK9__gnu_cxx17__normal_iteratorIPSt4pairIiiESt6vectorIS2_SaIS2_EEEplEl>
    2654:	48 89 c2             	mov    %rax,%rdx
    2657:	48 8b 4d d8          	mov    -0x28(%rbp),%rcx
    265b:	48 8b 45 c8          	mov    -0x38(%rbp),%rax
    265f:	48 89 ce             	mov    %rcx,%rsi
    2662:	48 89 c7             	mov    %rax,%rdi
    2665:	e8 0c 06 00 00       	callq  2c76 <_ZSt13move_backwardIN9__gnu_cxx17__normal_iteratorIPSt4pairIiiESt6vectorIS3_SaIS3_EEEES8_ET0_T_SA_S9_>
    266a:	48 8d 45 e0          	lea    -0x20(%rbp),%rax
    266e:	48 89 c7             	mov    %rax,%rdi
    2671:	e8 44 f4 ff ff       	callq  1aba <_ZSt4moveIRSt4pairIiiEEONSt16remove_referenceIT_E4typeEOS4_>
    2676:	48 89 c3             	mov    %rax,%rbx
    2679:	48 8d 45 c8          	lea    -0x38(%rbp),%rax
    267d:	48 89 c7             	mov    %rax,%rdi
    2680:	e8 17 f3 ff ff       	callq  199c <_ZNK9__gnu_cxx17__normal_iteratorIPSt4pairIiiESt6vectorIS2_SaIS2_EEEdeEv>
    2685:	48 89 de             	mov    %rbx,%rsi
    2688:	48 89 c7             	mov    %rax,%rdi
    268b:	e8 36 06 00 00       	callq  2cc6 <_ZNSt4pairIiiEaSEOS0_>
    2690:	eb 11                	jmp    26a3 <_ZSt16__insertion_sortIN9__gnu_cxx17__normal_iteratorIPSt4pairIiiESt6vectorIS3_SaIS3_EEEENS0_5__ops15_Iter_less_iterEEvT_SB_T0_+0x105>
    2692:	e8 3e ef ff ff       	callq  15d5 <_ZN9__gnu_cxx5__ops15__val_comp_iterENS0_15_Iter_less_iterE>
    2697:	48 8b 45 d8          	mov    -0x28(%rbp),%rax
    269b:	48 89 c7             	mov    %rax,%rdi
    269e:	e8 6a 06 00 00       	callq  2d0d <_ZSt25__unguarded_linear_insertIN9__gnu_cxx17__normal_iteratorIPSt4pairIiiESt6vectorIS3_SaIS3_EEEENS0_5__ops14_Val_less_iterEEvT_T0_>
    26a3:	48 8d 45 d8          	lea    -0x28(%rbp),%rax
    26a7:	48 89 c7             	mov    %rax,%rdi
    26aa:	e8 c9 f2 ff ff       	callq  1978 <_ZN9__gnu_cxx17__normal_iteratorIPSt4pairIiiESt6vectorIS2_SaIS2_EEEppEv>
    26af:	e9 3e ff ff ff       	jmpq   25f2 <_ZSt16__insertion_sortIN9__gnu_cxx17__normal_iteratorIPSt4pairIiiESt6vectorIS3_SaIS3_EEEENS0_5__ops15_Iter_less_iterEEvT_SB_T0_+0x54>
    26b4:	90                   	nop
    26b5:	48 8b 45 e8          	mov    -0x18(%rbp),%rax
    26b9:	64 48 33 04 25 28 00 	xor    %fs:0x28,%rax
    26c0:	00 00 
    26c2:	74 05                	je     26c9 <_ZSt16__insertion_sortIN9__gnu_cxx17__normal_iteratorIPSt4pairIiiESt6vectorIS3_SaIS3_EEEENS0_5__ops15_Iter_less_iterEEvT_SB_T0_+0x12b>
    26c4:	e8 e7 ea ff ff       	callq  11b0 <__stack_chk_fail@plt>
    26c9:	48 83 c4 48          	add    $0x48,%rsp
    26cd:	5b                   	pop    %rbx
    26ce:	5d                   	pop    %rbp
    26cf:	c3                   	retq   

00000000000026d0 <_ZSt26__unguarded_insertion_sortIN9__gnu_cxx17__normal_iteratorIPSt4pairIiiESt6vectorIS3_SaIS3_EEEENS0_5__ops15_Iter_less_iterEEvT_SB_T0_>:
    26d0:	f3 0f 1e fa          	endbr64 
    26d4:	55                   	push   %rbp
    26d5:	48 89 e5             	mov    %rsp,%rbp
    26d8:	48 83 ec 30          	sub    $0x30,%rsp
    26dc:	48 89 7d e8          	mov    %rdi,-0x18(%rbp)
    26e0:	48 89 75 e0          	mov    %rsi,-0x20(%rbp)
    26e4:	64 48 8b 04 25 28 00 	mov    %fs:0x28,%rax
    26eb:	00 00 
    26ed:	48 89 45 f8          	mov    %rax,-0x8(%rbp)
    26f1:	31 c0                	xor    %eax,%eax
    26f3:	48 8b 45 e8          	mov    -0x18(%rbp),%rax
    26f7:	48 89 45 f0          	mov    %rax,-0x10(%rbp)
    26fb:	48 8d 55 e0          	lea    -0x20(%rbp),%rdx
    26ff:	48 8d 45 f0          	lea    -0x10(%rbp),%rax
    2703:	48 89 d6             	mov    %rdx,%rsi
    2706:	48 89 c7             	mov    %rax,%rdi
    2709:	e8 2a f2 ff ff       	callq  1938 <_ZN9__gnu_cxxneIPSt4pairIiiESt6vectorIS2_SaIS2_EEEEbRKNS_17__normal_iteratorIT_T0_EESC_>
    270e:	84 c0                	test   %al,%al
    2710:	74 1f                	je     2731 <_ZSt26__unguarded_insertion_sortIN9__gnu_cxx17__normal_iteratorIPSt4pairIiiESt6vectorIS3_SaIS3_EEEENS0_5__ops15_Iter_less_iterEEvT_SB_T0_+0x61>
    2712:	e8 be ee ff ff       	callq  15d5 <_ZN9__gnu_cxx5__ops15__val_comp_iterENS0_15_Iter_less_iterE>
    2717:	48 8b 45 f0          	mov    -0x10(%rbp),%rax
    271b:	48 89 c7             	mov    %rax,%rdi
    271e:	e8 ea 05 00 00       	callq  2d0d <_ZSt25__unguarded_linear_insertIN9__gnu_cxx17__normal_iteratorIPSt4pairIiiESt6vectorIS3_SaIS3_EEEENS0_5__ops14_Val_less_iterEEvT_T0_>
    2723:	48 8d 45 f0          	lea    -0x10(%rbp),%rax
    2727:	48 89 c7             	mov    %rax,%rdi
    272a:	e8 49 f2 ff ff       	callq  1978 <_ZN9__gnu_cxx17__normal_iteratorIPSt4pairIiiESt6vectorIS2_SaIS2_EEEppEv>
    272f:	eb ca                	jmp    26fb <_ZSt26__unguarded_insertion_sortIN9__gnu_cxx17__normal_iteratorIPSt4pairIiiESt6vectorIS3_SaIS3_EEEENS0_5__ops15_Iter_less_iterEEvT_SB_T0_+0x2b>
    2731:	90                   	nop
    2732:	48 8b 45 f8          	mov    -0x8(%rbp),%rax
    2736:	64 48 33 04 25 28 00 	xor    %fs:0x28,%rax
    273d:	00 00 
    273f:	74 05                	je     2746 <_ZSt26__unguarded_insertion_sortIN9__gnu_cxx17__normal_iteratorIPSt4pairIiiESt6vectorIS3_SaIS3_EEEENS0_5__ops15_Iter_less_iterEEvT_SB_T0_+0x76>
    2741:	e8 6a ea ff ff       	callq  11b0 <__stack_chk_fail@plt>
    2746:	c9                   	leaveq 
    2747:	c3                   	retq   

0000000000002748 <_ZNKSt6vectorISt4pairIiiESaIS1_EE8max_sizeEv>:
    2748:	f3 0f 1e fa          	endbr64 
    274c:	55                   	push   %rbp
    274d:	48 89 e5             	mov    %rsp,%rbp
    2750:	48 83 ec 10          	sub    $0x10,%rsp
    2754:	48 89 7d f8          	mov    %rdi,-0x8(%rbp)
    2758:	48 8b 45 f8          	mov    -0x8(%rbp),%rax
    275c:	48 89 c7             	mov    %rax,%rdi
    275f:	e8 02 07 00 00       	callq  2e66 <_ZNKSt12_Vector_baseISt4pairIiiESaIS1_EE19_M_get_Tp_allocatorEv>
    2764:	48 89 c7             	mov    %rax,%rdi
    2767:	e8 91 06 00 00       	callq  2dfd <_ZNSt6vectorISt4pairIiiESaIS1_EE11_S_max_sizeERKS2_>
    276c:	c9                   	leaveq 
    276d:	c3                   	retq   

000000000000276e <_ZNKSt6vectorISt4pairIiiESaIS1_EE4sizeEv>:
    276e:	f3 0f 1e fa          	endbr64 
    2772:	55                   	push   %rbp
    2773:	48 89 e5             	mov    %rsp,%rbp
    2776:	48 89 7d f8          	mov    %rdi,-0x8(%rbp)
    277a:	48 8b 45 f8          	mov    -0x8(%rbp),%rax
    277e:	48 8b 50 08          	mov    0x8(%rax),%rdx
    2782:	48 8b 45 f8          	mov    -0x8(%rbp),%rax
    2786:	48 8b 00             	mov    (%rax),%rax
    2789:	48 29 c2             	sub    %rax,%rdx
    278c:	48 89 d0             	mov    %rdx,%rax
    278f:	48 c1 f8 03          	sar    $0x3,%rax
    2793:	5d                   	pop    %rbp
    2794:	c3                   	retq   

0000000000002795 <_ZNSt16allocator_traitsISaISt4pairIiiEEE8allocateERS2_m>:
    2795:	f3 0f 1e fa          	endbr64 
    2799:	55                   	push   %rbp
    279a:	48 89 e5             	mov    %rsp,%rbp
    279d:	48 83 ec 10          	sub    $0x10,%rsp
    27a1:	48 89 7d f8          	mov    %rdi,-0x8(%rbp)
    27a5:	48 89 75 f0          	mov    %rsi,-0x10(%rbp)
    27a9:	48 8b 4d f0          	mov    -0x10(%rbp),%rcx
    27ad:	48 8b 45 f8          	mov    -0x8(%rbp),%rax
    27b1:	ba 00 00 00 00       	mov    $0x0,%edx
    27b6:	48 89 ce             	mov    %rcx,%rsi
    27b9:	48 89 c7             	mov    %rax,%rdi
    27bc:	e8 b7 06 00 00       	callq  2e78 <_ZN9__gnu_cxx13new_allocatorISt4pairIiiEE8allocateEmPKv>
    27c1:	c9                   	leaveq 
    27c2:	c3                   	retq   

00000000000027c3 <_ZNSt6vectorISt4pairIiiESaIS1_EE14_S_do_relocateEPS1_S4_S4_RS2_St17integral_constantIbLb1EE>:
    27c3:	f3 0f 1e fa          	endbr64 
    27c7:	55                   	push   %rbp
    27c8:	48 89 e5             	mov    %rsp,%rbp
    27cb:	48 83 ec 20          	sub    $0x20,%rsp
    27cf:	48 89 7d f8          	mov    %rdi,-0x8(%rbp)
    27d3:	48 89 75 f0          	mov    %rsi,-0x10(%rbp)
    27d7:	48 89 55 e8          	mov    %rdx,-0x18(%rbp)
    27db:	48 89 4d e0          	mov    %rcx,-0x20(%rbp)
    27df:	48 8b 4d e0          	mov    -0x20(%rbp),%rcx
    27e3:	48 8b 55 e8          	mov    -0x18(%rbp),%rdx
    27e7:	48 8b 75 f0          	mov    -0x10(%rbp),%rsi
    27eb:	48 8b 45 f8          	mov    -0x8(%rbp),%rax
    27ef:	48 89 c7             	mov    %rax,%rdi
    27f2:	e8 c7 06 00 00       	callq  2ebe <_ZSt12__relocate_aIPSt4pairIiiES2_SaIS1_EET0_T_S5_S4_RT1_>
    27f7:	c9                   	leaveq 
    27f8:	c3                   	retq   

00000000000027f9 <_ZSt32__make_move_if_noexcept_iteratorISt4pairIiiESt13move_iteratorIPS1_EET0_PT_>:
    27f9:	f3 0f 1e fa          	endbr64 
    27fd:	55                   	push   %rbp
    27fe:	48 89 e5             	mov    %rsp,%rbp
    2801:	48 83 ec 20          	sub    $0x20,%rsp
    2805:	48 89 7d e8          	mov    %rdi,-0x18(%rbp)
    2809:	64 48 8b 04 25 28 00 	mov    %fs:0x28,%rax
    2810:	00 00 
    2812:	48 89 45 f8          	mov    %rax,-0x8(%rbp)
    2816:	31 c0                	xor    %eax,%eax
    2818:	48 8b 55 e8          	mov    -0x18(%rbp),%rdx
    281c:	48 8d 45 f0          	lea    -0x10(%rbp),%rax
    2820:	48 89 d6             	mov    %rdx,%rsi
    2823:	48 89 c7             	mov    %rax,%rdi
    2826:	e8 fb 06 00 00       	callq  2f26 <_ZNSt13move_iteratorIPSt4pairIiiEEC1ES2_>
    282b:	48 8b 45 f0          	mov    -0x10(%rbp),%rax
    282f:	48 8b 4d f8          	mov    -0x8(%rbp),%rcx
    2833:	64 48 33 0c 25 28 00 	xor    %fs:0x28,%rcx
    283a:	00 00 
    283c:	74 05                	je     2843 <_ZSt32__make_move_if_noexcept_iteratorISt4pairIiiESt13move_iteratorIPS1_EET0_PT_+0x4a>
    283e:	e8 6d e9 ff ff       	callq  11b0 <__stack_chk_fail@plt>
    2843:	c9                   	leaveq 
    2844:	c3                   	retq   

0000000000002845 <_ZSt22__uninitialized_copy_aISt13move_iteratorIPSt4pairIiiEES3_S2_ET0_T_S6_S5_RSaIT1_E>:
    2845:	f3 0f 1e fa          	endbr64 
    2849:	55                   	push   %rbp
    284a:	48 89 e5             	mov    %rsp,%rbp
    284d:	48 83 ec 20          	sub    $0x20,%rsp
    2851:	48 89 7d f8          	mov    %rdi,-0x8(%rbp)
    2855:	48 89 75 f0          	mov    %rsi,-0x10(%rbp)
    2859:	48 89 55 e8          	mov    %rdx,-0x18(%rbp)
    285d:	48 89 4d e0          	mov    %rcx,-0x20(%rbp)
    2861:	48 8b 55 e8          	mov    -0x18(%rbp),%rdx
    2865:	48 8b 4d f0          	mov    -0x10(%rbp),%rcx
    2869:	48 8b 45 f8          	mov    -0x8(%rbp),%rax
    286d:	48 89 ce             	mov    %rcx,%rsi
    2870:	48 89 c7             	mov    %rax,%rdi
    2873:	e8 cc 06 00 00       	callq  2f44 <_ZSt18uninitialized_copyISt13move_iteratorIPSt4pairIiiEES3_ET0_T_S6_S5_>
    2878:	c9                   	leaveq 
    2879:	c3                   	retq   

000000000000287a <_ZN9__gnu_cxx13new_allocatorISt4pairIiiEE7destroyIS2_EEvPT_>:
    287a:	f3 0f 1e fa          	endbr64 
    287e:	55                   	push   %rbp
    287f:	48 89 e5             	mov    %rsp,%rbp
    2882:	48 89 7d f8          	mov    %rdi,-0x8(%rbp)
    2886:	48 89 75 f0          	mov    %rsi,-0x10(%rbp)
    288a:	90                   	nop
    288b:	5d                   	pop    %rbp
    288c:	c3                   	retq   

000000000000288d <_ZSt13__heap_selectIN9__gnu_cxx17__normal_iteratorIPSt4pairIiiESt6vectorIS3_SaIS3_EEEENS0_5__ops15_Iter_less_iterEEvT_SB_SB_T0_>:
    288d:	f3 0f 1e fa          	endbr64 
    2891:	55                   	push   %rbp
    2892:	48 89 e5             	mov    %rsp,%rbp
    2895:	48 83 ec 30          	sub    $0x30,%rsp
    2899:	48 89 7d e8          	mov    %rdi,-0x18(%rbp)
    289d:	48 89 75 e0          	mov    %rsi,-0x20(%rbp)
    28a1:	48 89 55 d8          	mov    %rdx,-0x28(%rbp)
    28a5:	64 48 8b 04 25 28 00 	mov    %fs:0x28,%rax
    28ac:	00 00 
    28ae:	48 89 45 f8          	mov    %rax,-0x8(%rbp)
    28b2:	31 c0                	xor    %eax,%eax
    28b4:	48 8d 55 d7          	lea    -0x29(%rbp),%rdx
    28b8:	48 8b 4d e0          	mov    -0x20(%rbp),%rcx
    28bc:	48 8b 45 e8          	mov    -0x18(%rbp),%rax
    28c0:	48 89 ce             	mov    %rcx,%rsi
    28c3:	48 89 c7             	mov    %rax,%rdi
    28c6:	e8 ae 06 00 00       	callq  2f79 <_ZSt11__make_heapIN9__gnu_cxx17__normal_iteratorIPSt4pairIiiESt6vectorIS3_SaIS3_EEEENS0_5__ops15_Iter_less_iterEEvT_SB_RT0_>
    28cb:	48 8b 45 e0          	mov    -0x20(%rbp),%rax
    28cf:	48 89 45 f0          	mov    %rax,-0x10(%rbp)
    28d3:	48 8d 55 d8          	lea    -0x28(%rbp),%rdx
    28d7:	48 8d 45 f0          	lea    -0x10(%rbp),%rax
    28db:	48 89 d6             	mov    %rdx,%rsi
    28de:	48 89 c7             	mov    %rax,%rdi
    28e1:	e8 8c 07 00 00       	callq  3072 <_ZN9__gnu_cxxltIPSt4pairIiiESt6vectorIS2_SaIS2_EEEEbRKNS_17__normal_iteratorIT_T0_EESC_>
    28e6:	84 c0                	test   %al,%al
    28e8:	74 41                	je     292b <_ZSt13__heap_selectIN9__gnu_cxx17__normal_iteratorIPSt4pairIiiESt6vectorIS3_SaIS3_EEEENS0_5__ops15_Iter_less_iterEEvT_SB_SB_T0_+0x9e>
    28ea:	48 8b 55 e8          	mov    -0x18(%rbp),%rdx
    28ee:	48 8b 4d f0          	mov    -0x10(%rbp),%rcx
    28f2:	48 8d 45 d7          	lea    -0x29(%rbp),%rax
    28f6:	48 89 ce             	mov    %rcx,%rsi
    28f9:	48 89 c7             	mov    %rax,%rdi
    28fc:	e8 0b 01 00 00       	callq  2a0c <_ZNK9__gnu_cxx5__ops15_Iter_less_iterclINS_17__normal_iteratorIPSt4pairIiiESt6vectorIS5_SaIS5_EEEESA_EEbT_T0_>
    2901:	84 c0                	test   %al,%al
    2903:	74 18                	je     291d <_ZSt13__heap_selectIN9__gnu_cxx17__normal_iteratorIPSt4pairIiiESt6vectorIS3_SaIS3_EEEENS0_5__ops15_Iter_less_iterEEvT_SB_SB_T0_+0x90>
    2905:	48 8d 4d d7          	lea    -0x29(%rbp),%rcx
    2909:	48 8b 55 f0          	mov    -0x10(%rbp),%rdx
    290d:	48 8b 75 e0          	mov    -0x20(%rbp),%rsi
    2911:	48 8b 45 e8          	mov    -0x18(%rbp),%rax
    2915:	48 89 c7             	mov    %rax,%rdi
    2918:	e8 95 07 00 00       	callq  30b2 <_ZSt10__pop_heapIN9__gnu_cxx17__normal_iteratorIPSt4pairIiiESt6vectorIS3_SaIS3_EEEENS0_5__ops15_Iter_less_iterEEvT_SB_SB_RT0_>
    291d:	48 8d 45 f0          	lea    -0x10(%rbp),%rax
    2921:	48 89 c7             	mov    %rax,%rdi
    2924:	e8 4f f0 ff ff       	callq  1978 <_ZN9__gnu_cxx17__normal_iteratorIPSt4pairIiiESt6vectorIS2_SaIS2_EEEppEv>
    2929:	eb a8                	jmp    28d3 <_ZSt13__heap_selectIN9__gnu_cxx17__normal_iteratorIPSt4pairIiiESt6vectorIS3_SaIS3_EEEENS0_5__ops15_Iter_less_iterEEvT_SB_SB_T0_+0x46>
    292b:	90                   	nop
    292c:	48 8b 45 f8          	mov    -0x8(%rbp),%rax
    2930:	64 48 33 04 25 28 00 	xor    %fs:0x28,%rax
    2937:	00 00 
    2939:	74 05                	je     2940 <_ZSt13__heap_selectIN9__gnu_cxx17__normal_iteratorIPSt4pairIiiESt6vectorIS3_SaIS3_EEEENS0_5__ops15_Iter_less_iterEEvT_SB_SB_T0_+0xb3>
    293b:	e8 70 e8 ff ff       	callq  11b0 <__stack_chk_fail@plt>
    2940:	c9                   	leaveq 
    2941:	c3                   	retq   

0000000000002942 <_ZSt11__sort_heapIN9__gnu_cxx17__normal_iteratorIPSt4pairIiiESt6vectorIS3_SaIS3_EEEENS0_5__ops15_Iter_less_iterEEvT_SB_RT0_>:
    2942:	f3 0f 1e fa          	endbr64 
    2946:	55                   	push   %rbp
    2947:	48 89 e5             	mov    %rsp,%rbp
    294a:	48 83 ec 20          	sub    $0x20,%rsp
    294e:	48 89 7d f8          	mov    %rdi,-0x8(%rbp)
    2952:	48 89 75 f0          	mov    %rsi,-0x10(%rbp)
    2956:	48 89 55 e8          	mov    %rdx,-0x18(%rbp)
    295a:	48 8d 55 f8          	lea    -0x8(%rbp),%rdx
    295e:	48 8d 45 f0          	lea    -0x10(%rbp),%rax
    2962:	48 89 d6             	mov    %rdx,%rsi
    2965:	48 89 c7             	mov    %rax,%rdi
    2968:	e8 9a f6 ff ff       	callq  2007 <_ZN9__gnu_cxxmiIPSt4pairIiiESt6vectorIS2_SaIS2_EEEENS_17__normal_iteratorIT_T0_E15difference_typeERKSA_SD_>
    296d:	48 83 f8 01          	cmp    $0x1,%rax
    2971:	0f 9f c0             	setg   %al
    2974:	84 c0                	test   %al,%al
    2976:	74 26                	je     299e <_ZSt11__sort_heapIN9__gnu_cxx17__normal_iteratorIPSt4pairIiiESt6vectorIS3_SaIS3_EEEENS0_5__ops15_Iter_less_iterEEvT_SB_RT0_+0x5c>
    2978:	48 8d 45 f0          	lea    -0x10(%rbp),%rax
    297c:	48 89 c7             	mov    %rax,%rdi
    297f:	e8 f8 07 00 00       	callq  317c <_ZN9__gnu_cxx17__normal_iteratorIPSt4pairIiiESt6vectorIS2_SaIS2_EEEmmEv>
    2984:	48 8b 4d e8          	mov    -0x18(%rbp),%rcx
    2988:	48 8b 55 f0          	mov    -0x10(%rbp),%rdx
    298c:	48 8b 75 f0          	mov    -0x10(%rbp),%rsi
    2990:	48 8b 45 f8          	mov    -0x8(%rbp),%rax
    2994:	48 89 c7             	mov    %rax,%rdi
    2997:	e8 16 07 00 00       	callq  30b2 <_ZSt10__pop_heapIN9__gnu_cxx17__normal_iteratorIPSt4pairIiiESt6vectorIS3_SaIS3_EEEENS0_5__ops15_Iter_less_iterEEvT_SB_SB_RT0_>
    299c:	eb bc                	jmp    295a <_ZSt11__sort_heapIN9__gnu_cxx17__normal_iteratorIPSt4pairIiiESt6vectorIS3_SaIS3_EEEENS0_5__ops15_Iter_less_iterEEvT_SB_RT0_+0x18>
    299e:	90                   	nop
    299f:	c9                   	leaveq 
    29a0:	c3                   	retq   
    29a1:	90                   	nop

00000000000029a2 <_ZNK9__gnu_cxx17__normal_iteratorIPSt4pairIiiESt6vectorIS2_SaIS2_EEEmiEl>:
    29a2:	f3 0f 1e fa          	endbr64 
    29a6:	55                   	push   %rbp
    29a7:	48 89 e5             	mov    %rsp,%rbp
    29aa:	48 83 ec 30          	sub    $0x30,%rsp
    29ae:	48 89 7d d8          	mov    %rdi,-0x28(%rbp)
    29b2:	48 89 75 d0          	mov    %rsi,-0x30(%rbp)
    29b6:	64 48 8b 04 25 28 00 	mov    %fs:0x28,%rax
    29bd:	00 00 
    29bf:	48 89 45 f8          	mov    %rax,-0x8(%rbp)
    29c3:	31 c0                	xor    %eax,%eax
    29c5:	48 8b 45 d8          	mov    -0x28(%rbp),%rax
    29c9:	48 8b 00             	mov    (%rax),%rax
    29cc:	48 8b 55 d0          	mov    -0x30(%rbp),%rdx
    29d0:	48 c1 e2 03          	shl    $0x3,%rdx
    29d4:	48 f7 da             	neg    %rdx
    29d7:	48 01 d0             	add    %rdx,%rax
    29da:	48 89 45 e8          	mov    %rax,-0x18(%rbp)
    29de:	48 8d 55 e8          	lea    -0x18(%rbp),%rdx
    29e2:	48 8d 45 f0          	lea    -0x10(%rbp),%rax
    29e6:	48 89 d6             	mov    %rdx,%rsi
    29e9:	48 89 c7             	mov    %rax,%rdi
    29ec:	e8 79 f1 ff ff       	callq  1b6a <_ZN9__gnu_cxx17__normal_iteratorIPSt4pairIiiESt6vectorIS2_SaIS2_EEEC1ERKS3_>
    29f1:	48 8b 45 f0          	mov    -0x10(%rbp),%rax
    29f5:	48 8b 4d f8          	mov    -0x8(%rbp),%rcx
    29f9:	64 48 33 0c 25 28 00 	xor    %fs:0x28,%rcx
    2a00:	00 00 
    2a02:	74 05                	je     2a09 <_ZNK9__gnu_cxx17__normal_iteratorIPSt4pairIiiESt6vectorIS2_SaIS2_EEEmiEl+0x67>
    2a04:	e8 a7 e7 ff ff       	callq  11b0 <__stack_chk_fail@plt>
    2a09:	c9                   	leaveq 
    2a0a:	c3                   	retq   
    2a0b:	90                   	nop

0000000000002a0c <_ZNK9__gnu_cxx5__ops15_Iter_less_iterclINS_17__normal_iteratorIPSt4pairIiiESt6vectorIS5_SaIS5_EEEESA_EEbT_T0_>:
    2a0c:	f3 0f 1e fa          	endbr64 
    2a10:	55                   	push   %rbp
    2a11:	48 89 e5             	mov    %rsp,%rbp
    2a14:	53                   	push   %rbx
    2a15:	48 83 ec 28          	sub    $0x28,%rsp
    2a19:	48 89 7d e8          	mov    %rdi,-0x18(%rbp)
    2a1d:	48 89 75 e0          	mov    %rsi,-0x20(%rbp)
    2a21:	48 89 55 d8          	mov    %rdx,-0x28(%rbp)
    2a25:	48 8d 45 d8          	lea    -0x28(%rbp),%rax
    2a29:	48 89 c7             	mov    %rax,%rdi
    2a2c:	e8 6b ef ff ff       	callq  199c <_ZNK9__gnu_cxx17__normal_iteratorIPSt4pairIiiESt6vectorIS2_SaIS2_EEEdeEv>
    2a31:	48 89 c3             	mov    %rax,%rbx
    2a34:	48 8d 45 e0          	lea    -0x20(%rbp),%rax
    2a38:	48 89 c7             	mov    %rax,%rdi
    2a3b:	e8 5c ef ff ff       	callq  199c <_ZNK9__gnu_cxx17__normal_iteratorIPSt4pairIiiESt6vectorIS2_SaIS2_EEEdeEv>
    2a40:	48 89 de             	mov    %rbx,%rsi
    2a43:	48 89 c7             	mov    %rax,%rdi
    2a46:	e8 55 07 00 00       	callq  31a0 <_ZStltIiiEbRKSt4pairIT_T0_ES5_>
    2a4b:	48 83 c4 28          	add    $0x28,%rsp
    2a4f:	5b                   	pop    %rbx
    2a50:	5d                   	pop    %rbp
    2a51:	c3                   	retq   

0000000000002a52 <_ZSt22__move_median_to_firstIN9__gnu_cxx17__normal_iteratorIPSt4pairIiiESt6vectorIS3_SaIS3_EEEENS0_5__ops15_Iter_less_iterEEvT_SB_SB_SB_T0_>:
    2a52:	f3 0f 1e fa          	endbr64 
    2a56:	55                   	push   %rbp
    2a57:	48 89 e5             	mov    %rsp,%rbp
    2a5a:	48 83 ec 30          	sub    $0x30,%rsp
    2a5e:	48 89 7d f8          	mov    %rdi,-0x8(%rbp)
    2a62:	48 89 75 f0          	mov    %rsi,-0x10(%rbp)
    2a66:	48 89 55 e8          	mov    %rdx,-0x18(%rbp)
    2a6a:	48 89 4d e0          	mov    %rcx,-0x20(%rbp)
    2a6e:	48 8b 55 e8          	mov    -0x18(%rbp),%rdx
    2a72:	48 8b 4d f0          	mov    -0x10(%rbp),%rcx
    2a76:	48 8d 45 df          	lea    -0x21(%rbp),%rax
    2a7a:	48 89 ce             	mov    %rcx,%rsi
    2a7d:	48 89 c7             	mov    %rax,%rdi
    2a80:	e8 87 ff ff ff       	callq  2a0c <_ZNK9__gnu_cxx5__ops15_Iter_less_iterclINS_17__normal_iteratorIPSt4pairIiiESt6vectorIS5_SaIS5_EEEESA_EEbT_T0_>
    2a85:	84 c0                	test   %al,%al
    2a87:	74 7b                	je     2b04 <_ZSt22__move_median_to_firstIN9__gnu_cxx17__normal_iteratorIPSt4pairIiiESt6vectorIS3_SaIS3_EEEENS0_5__ops15_Iter_less_iterEEvT_SB_SB_SB_T0_+0xb2>
    2a89:	48 8b 55 e0          	mov    -0x20(%rbp),%rdx
    2a8d:	48 8b 4d e8          	mov    -0x18(%rbp),%rcx
    2a91:	48 8d 45 df          	lea    -0x21(%rbp),%rax
    2a95:	48 89 ce             	mov    %rcx,%rsi
    2a98:	48 89 c7             	mov    %rax,%rdi
    2a9b:	e8 6c ff ff ff       	callq  2a0c <_ZNK9__gnu_cxx5__ops15_Iter_less_iterclINS_17__normal_iteratorIPSt4pairIiiESt6vectorIS5_SaIS5_EEEESA_EEbT_T0_>
    2aa0:	84 c0                	test   %al,%al
    2aa2:	74 18                	je     2abc <_ZSt22__move_median_to_firstIN9__gnu_cxx17__normal_iteratorIPSt4pairIiiESt6vectorIS3_SaIS3_EEEENS0_5__ops15_Iter_less_iterEEvT_SB_SB_SB_T0_+0x6a>
    2aa4:	48 8b 55 e8          	mov    -0x18(%rbp),%rdx
    2aa8:	48 8b 45 f8          	mov    -0x8(%rbp),%rax
    2aac:	48 89 d6             	mov    %rdx,%rsi
    2aaf:	48 89 c7             	mov    %rax,%rdi
    2ab2:	e8 39 07 00 00       	callq  31f0 <_ZSt9iter_swapIN9__gnu_cxx17__normal_iteratorIPSt4pairIiiESt6vectorIS3_SaIS3_EEEES8_EvT_T0_>
    2ab7:	e9 bb 00 00 00       	jmpq   2b77 <_ZSt22__move_median_to_firstIN9__gnu_cxx17__normal_iteratorIPSt4pairIiiESt6vectorIS3_SaIS3_EEEENS0_5__ops15_Iter_less_iterEEvT_SB_SB_SB_T0_+0x125>
    2abc:	48 8b 55 e0          	mov    -0x20(%rbp),%rdx
    2ac0:	48 8b 4d f0          	mov    -0x10(%rbp),%rcx
    2ac4:	48 8d 45 df          	lea    -0x21(%rbp),%rax
    2ac8:	48 89 ce             	mov    %rcx,%rsi
    2acb:	48 89 c7             	mov    %rax,%rdi
    2ace:	e8 39 ff ff ff       	callq  2a0c <_ZNK9__gnu_cxx5__ops15_Iter_less_iterclINS_17__normal_iteratorIPSt4pairIiiESt6vectorIS5_SaIS5_EEEESA_EEbT_T0_>
    2ad3:	84 c0                	test   %al,%al
    2ad5:	74 18                	je     2aef <_ZSt22__move_median_to_firstIN9__gnu_cxx17__normal_iteratorIPSt4pairIiiESt6vectorIS3_SaIS3_EEEENS0_5__ops15_Iter_less_iterEEvT_SB_SB_SB_T0_+0x9d>
    2ad7:	48 8b 55 e0          	mov    -0x20(%rbp),%rdx
    2adb:	48 8b 45 f8          	mov    -0x8(%rbp),%rax
    2adf:	48 89 d6             	mov    %rdx,%rsi
    2ae2:	48 89 c7             	mov    %rax,%rdi
    2ae5:	e8 06 07 00 00       	callq  31f0 <_ZSt9iter_swapIN9__gnu_cxx17__normal_iteratorIPSt4pairIiiESt6vectorIS3_SaIS3_EEEES8_EvT_T0_>
    2aea:	e9 88 00 00 00       	jmpq   2b77 <_ZSt22__move_median_to_firstIN9__gnu_cxx17__normal_iteratorIPSt4pairIiiESt6vectorIS3_SaIS3_EEEENS0_5__ops15_Iter_less_iterEEvT_SB_SB_SB_T0_+0x125>
    2aef:	48 8b 55 f0          	mov    -0x10(%rbp),%rdx
    2af3:	48 8b 45 f8          	mov    -0x8(%rbp),%rax
    2af7:	48 89 d6             	mov    %rdx,%rsi
    2afa:	48 89 c7             	mov    %rax,%rdi
    2afd:	e8 ee 06 00 00       	callq  31f0 <_ZSt9iter_swapIN9__gnu_cxx17__normal_iteratorIPSt4pairIiiESt6vectorIS3_SaIS3_EEEES8_EvT_T0_>
    2b02:	eb 73                	jmp    2b77 <_ZSt22__move_median_to_firstIN9__gnu_cxx17__normal_iteratorIPSt4pairIiiESt6vectorIS3_SaIS3_EEEENS0_5__ops15_Iter_less_iterEEvT_SB_SB_SB_T0_+0x125>
    2b04:	48 8b 55 e0          	mov    -0x20(%rbp),%rdx
    2b08:	48 8b 4d f0          	mov    -0x10(%rbp),%rcx
    2b0c:	48 8d 45 df          	lea    -0x21(%rbp),%rax
    2b10:	48 89 ce             	mov    %rcx,%rsi
    2b13:	48 89 c7             	mov    %rax,%rdi
    2b16:	e8 f1 fe ff ff       	callq  2a0c <_ZNK9__gnu_cxx5__ops15_Iter_less_iterclINS_17__normal_iteratorIPSt4pairIiiESt6vectorIS5_SaIS5_EEEESA_EEbT_T0_>
    2b1b:	84 c0                	test   %al,%al
    2b1d:	74 15                	je     2b34 <_ZSt22__move_median_to_firstIN9__gnu_cxx17__normal_iteratorIPSt4pairIiiESt6vectorIS3_SaIS3_EEEENS0_5__ops15_Iter_less_iterEEvT_SB_SB_SB_T0_+0xe2>
    2b1f:	48 8b 55 f0          	mov    -0x10(%rbp),%rdx
    2b23:	48 8b 45 f8          	mov    -0x8(%rbp),%rax
    2b27:	48 89 d6             	mov    %rdx,%rsi
    2b2a:	48 89 c7             	mov    %rax,%rdi
    2b2d:	e8 be 06 00 00       	callq  31f0 <_ZSt9iter_swapIN9__gnu_cxx17__normal_iteratorIPSt4pairIiiESt6vectorIS3_SaIS3_EEEES8_EvT_T0_>
    2b32:	eb 43                	jmp    2b77 <_ZSt22__move_median_to_firstIN9__gnu_cxx17__normal_iteratorIPSt4pairIiiESt6vectorIS3_SaIS3_EEEENS0_5__ops15_Iter_less_iterEEvT_SB_SB_SB_T0_+0x125>
    2b34:	48 8b 55 e0          	mov    -0x20(%rbp),%rdx
    2b38:	48 8b 4d e8          	mov    -0x18(%rbp),%rcx
    2b3c:	48 8d 45 df          	lea    -0x21(%rbp),%rax
    2b40:	48 89 ce             	mov    %rcx,%rsi
    2b43:	48 89 c7             	mov    %rax,%rdi
    2b46:	e8 c1 fe ff ff       	callq  2a0c <_ZNK9__gnu_cxx5__ops15_Iter_less_iterclINS_17__normal_iteratorIPSt4pairIiiESt6vectorIS5_SaIS5_EEEESA_EEbT_T0_>
    2b4b:	84 c0                	test   %al,%al
    2b4d:	74 15                	je     2b64 <_ZSt22__move_median_to_firstIN9__gnu_cxx17__normal_iteratorIPSt4pairIiiESt6vectorIS3_SaIS3_EEEENS0_5__ops15_Iter_less_iterEEvT_SB_SB_SB_T0_+0x112>
    2b4f:	48 8b 55 e0          	mov    -0x20(%rbp),%rdx
    2b53:	48 8b 45 f8          	mov    -0x8(%rbp),%rax
    2b57:	48 89 d6             	mov    %rdx,%rsi
    2b5a:	48 89 c7             	mov    %rax,%rdi
    2b5d:	e8 8e 06 00 00       	callq  31f0 <_ZSt9iter_swapIN9__gnu_cxx17__normal_iteratorIPSt4pairIiiESt6vectorIS3_SaIS3_EEEES8_EvT_T0_>
    2b62:	eb 13                	jmp    2b77 <_ZSt22__move_median_to_firstIN9__gnu_cxx17__normal_iteratorIPSt4pairIiiESt6vectorIS3_SaIS3_EEEENS0_5__ops15_Iter_less_iterEEvT_SB_SB_SB_T0_+0x125>
    2b64:	48 8b 55 e8          	mov    -0x18(%rbp),%rdx
    2b68:	48 8b 45 f8          	mov    -0x8(%rbp),%rax
    2b6c:	48 89 d6             	mov    %rdx,%rsi
    2b6f:	48 89 c7             	mov    %rax,%rdi
    2b72:	e8 79 06 00 00       	callq  31f0 <_ZSt9iter_swapIN9__gnu_cxx17__normal_iteratorIPSt4pairIiiESt6vectorIS3_SaIS3_EEEES8_EvT_T0_>
    2b77:	90                   	nop
    2b78:	c9                   	leaveq 
    2b79:	c3                   	retq   

0000000000002b7a <_ZSt21__unguarded_partitionIN9__gnu_cxx17__normal_iteratorIPSt4pairIiiESt6vectorIS3_SaIS3_EEEENS0_5__ops15_Iter_less_iterEET_SB_SB_SB_T0_>:
    2b7a:	f3 0f 1e fa          	endbr64 
    2b7e:	55                   	push   %rbp
    2b7f:	48 89 e5             	mov    %rsp,%rbp
    2b82:	48 83 ec 20          	sub    $0x20,%rsp
    2b86:	48 89 7d f8          	mov    %rdi,-0x8(%rbp)
    2b8a:	48 89 75 f0          	mov    %rsi,-0x10(%rbp)
    2b8e:	48 89 55 e8          	mov    %rdx,-0x18(%rbp)
    2b92:	48 8b 55 e8          	mov    -0x18(%rbp),%rdx
    2b96:	48 8b 4d f8          	mov    -0x8(%rbp),%rcx
    2b9a:	48 8d 45 e7          	lea    -0x19(%rbp),%rax
    2b9e:	48 89 ce             	mov    %rcx,%rsi
    2ba1:	48 89 c7             	mov    %rax,%rdi
    2ba4:	e8 63 fe ff ff       	callq  2a0c <_ZNK9__gnu_cxx5__ops15_Iter_less_iterclINS_17__normal_iteratorIPSt4pairIiiESt6vectorIS5_SaIS5_EEEESA_EEbT_T0_>
    2ba9:	84 c0                	test   %al,%al
    2bab:	74 0e                	je     2bbb <_ZSt21__unguarded_partitionIN9__gnu_cxx17__normal_iteratorIPSt4pairIiiESt6vectorIS3_SaIS3_EEEENS0_5__ops15_Iter_less_iterEET_SB_SB_SB_T0_+0x41>
    2bad:	48 8d 45 f8          	lea    -0x8(%rbp),%rax
    2bb1:	48 89 c7             	mov    %rax,%rdi
    2bb4:	e8 bf ed ff ff       	callq  1978 <_ZN9__gnu_cxx17__normal_iteratorIPSt4pairIiiESt6vectorIS2_SaIS2_EEEppEv>
    2bb9:	eb d7                	jmp    2b92 <_ZSt21__unguarded_partitionIN9__gnu_cxx17__normal_iteratorIPSt4pairIiiESt6vectorIS3_SaIS3_EEEENS0_5__ops15_Iter_less_iterEET_SB_SB_SB_T0_+0x18>
    2bbb:	48 8d 45 f0          	lea    -0x10(%rbp),%rax
    2bbf:	48 89 c7             	mov    %rax,%rdi
    2bc2:	e8 b5 05 00 00       	callq  317c <_ZN9__gnu_cxx17__normal_iteratorIPSt4pairIiiESt6vectorIS2_SaIS2_EEEmmEv>
    2bc7:	48 8b 55 f0          	mov    -0x10(%rbp),%rdx
    2bcb:	48 8b 4d e8          	mov    -0x18(%rbp),%rcx
    2bcf:	48 8d 45 e7          	lea    -0x19(%rbp),%rax
    2bd3:	48 89 ce             	mov    %rcx,%rsi
    2bd6:	48 89 c7             	mov    %rax,%rdi
    2bd9:	e8 2e fe ff ff       	callq  2a0c <_ZNK9__gnu_cxx5__ops15_Iter_less_iterclINS_17__normal_iteratorIPSt4pairIiiESt6vectorIS5_SaIS5_EEEESA_EEbT_T0_>
    2bde:	84 c0                	test   %al,%al
    2be0:	74 0e                	je     2bf0 <_ZSt21__unguarded_partitionIN9__gnu_cxx17__normal_iteratorIPSt4pairIiiESt6vectorIS3_SaIS3_EEEENS0_5__ops15_Iter_less_iterEET_SB_SB_SB_T0_+0x76>
    2be2:	48 8d 45 f0          	lea    -0x10(%rbp),%rax
    2be6:	48 89 c7             	mov    %rax,%rdi
    2be9:	e8 8e 05 00 00       	callq  317c <_ZN9__gnu_cxx17__normal_iteratorIPSt4pairIiiESt6vectorIS2_SaIS2_EEEmmEv>
    2bee:	eb d7                	jmp    2bc7 <_ZSt21__unguarded_partitionIN9__gnu_cxx17__normal_iteratorIPSt4pairIiiESt6vectorIS3_SaIS3_EEEENS0_5__ops15_Iter_less_iterEET_SB_SB_SB_T0_+0x4d>
    2bf0:	48 8d 55 f0          	lea    -0x10(%rbp),%rdx
    2bf4:	48 8d 45 f8          	lea    -0x8(%rbp),%rax
    2bf8:	48 89 d6             	mov    %rdx,%rsi
    2bfb:	48 89 c7             	mov    %rax,%rdi
    2bfe:	e8 6f 04 00 00       	callq  3072 <_ZN9__gnu_cxxltIPSt4pairIiiESt6vectorIS2_SaIS2_EEEEbRKNS_17__normal_iteratorIT_T0_EESC_>
    2c03:	83 f0 01             	xor    $0x1,%eax
    2c06:	84 c0                	test   %al,%al
    2c08:	74 06                	je     2c10 <_ZSt21__unguarded_partitionIN9__gnu_cxx17__normal_iteratorIPSt4pairIiiESt6vectorIS3_SaIS3_EEEENS0_5__ops15_Iter_less_iterEET_SB_SB_SB_T0_+0x96>
    2c0a:	48 8b 45 f8          	mov    -0x8(%rbp),%rax
    2c0e:	eb 24                	jmp    2c34 <_ZSt21__unguarded_partitionIN9__gnu_cxx17__normal_iteratorIPSt4pairIiiESt6vectorIS3_SaIS3_EEEENS0_5__ops15_Iter_less_iterEET_SB_SB_SB_T0_+0xba>
    2c10:	48 8b 55 f0          	mov    -0x10(%rbp),%rdx
    2c14:	48 8b 45 f8          	mov    -0x8(%rbp),%rax
    2c18:	48 89 d6             	mov    %rdx,%rsi
    2c1b:	48 89 c7             	mov    %rax,%rdi
    2c1e:	e8 cd 05 00 00       	callq  31f0 <_ZSt9iter_swapIN9__gnu_cxx17__normal_iteratorIPSt4pairIiiESt6vectorIS3_SaIS3_EEEES8_EvT_T0_>
    2c23:	48 8d 45 f8          	lea    -0x8(%rbp),%rax
    2c27:	48 89 c7             	mov    %rax,%rdi
    2c2a:	e8 49 ed ff ff       	callq  1978 <_ZN9__gnu_cxx17__normal_iteratorIPSt4pairIiiESt6vectorIS2_SaIS2_EEEppEv>
    2c2f:	e9 5e ff ff ff       	jmpq   2b92 <_ZSt21__unguarded_partitionIN9__gnu_cxx17__normal_iteratorIPSt4pairIiiESt6vectorIS3_SaIS3_EEEENS0_5__ops15_Iter_less_iterEET_SB_SB_SB_T0_+0x18>
    2c34:	c9                   	leaveq 
    2c35:	c3                   	retq   

0000000000002c36 <_ZN9__gnu_cxxeqIPSt4pairIiiESt6vectorIS2_SaIS2_EEEEbRKNS_17__normal_iteratorIT_T0_EESC_>:
    2c36:	f3 0f 1e fa          	endbr64 
    2c3a:	55                   	push   %rbp
    2c3b:	48 89 e5             	mov    %rsp,%rbp
    2c3e:	53                   	push   %rbx
    2c3f:	48 83 ec 18          	sub    $0x18,%rsp
    2c43:	48 89 7d e8          	mov    %rdi,-0x18(%rbp)
    2c47:	48 89 75 e0          	mov    %rsi,-0x20(%rbp)
    2c4b:	48 8b 45 e8          	mov    -0x18(%rbp),%rax
    2c4f:	48 89 c7             	mov    %rax,%rdi
    2c52:	e8 a7 ef ff ff       	callq  1bfe <_ZNK9__gnu_cxx17__normal_iteratorIPSt4pairIiiESt6vectorIS2_SaIS2_EEE4baseEv>
    2c57:	48 8b 18             	mov    (%rax),%rbx
    2c5a:	48 8b 45 e0          	mov    -0x20(%rbp),%rax
    2c5e:	48 89 c7             	mov    %rax,%rdi
    2c61:	e8 98 ef ff ff       	callq  1bfe <_ZNK9__gnu_cxx17__normal_iteratorIPSt4pairIiiESt6vectorIS2_SaIS2_EEE4baseEv>
    2c66:	48 8b 00             	mov    (%rax),%rax
    2c69:	48 39 c3             	cmp    %rax,%rbx
    2c6c:	0f 94 c0             	sete   %al
    2c6f:	48 83 c4 18          	add    $0x18,%rsp
    2c73:	5b                   	pop    %rbx
    2c74:	5d                   	pop    %rbp
    2c75:	c3                   	retq   

0000000000002c76 <_ZSt13move_backwardIN9__gnu_cxx17__normal_iteratorIPSt4pairIiiESt6vectorIS3_SaIS3_EEEES8_ET0_T_SA_S9_>:
    2c76:	f3 0f 1e fa          	endbr64 
    2c7a:	55                   	push   %rbp
    2c7b:	48 89 e5             	mov    %rsp,%rbp
    2c7e:	53                   	push   %rbx
    2c7f:	48 83 ec 28          	sub    $0x28,%rsp
    2c83:	48 89 7d e8          	mov    %rdi,-0x18(%rbp)
    2c87:	48 89 75 e0          	mov    %rsi,-0x20(%rbp)
    2c8b:	48 89 55 d8          	mov    %rdx,-0x28(%rbp)
    2c8f:	48 8b 45 e0          	mov    -0x20(%rbp),%rax
    2c93:	48 89 c7             	mov    %rax,%rdi
    2c96:	e8 98 05 00 00       	callq  3233 <_ZSt12__miter_baseIN9__gnu_cxx17__normal_iteratorIPSt4pairIiiESt6vectorIS3_SaIS3_EEEEET_S9_>
    2c9b:	48 89 c3             	mov    %rax,%rbx
    2c9e:	48 8b 45 e8          	mov    -0x18(%rbp),%rax
    2ca2:	48 89 c7             	mov    %rax,%rdi
    2ca5:	e8 89 05 00 00       	callq  3233 <_ZSt12__miter_baseIN9__gnu_cxx17__normal_iteratorIPSt4pairIiiESt6vectorIS3_SaIS3_EEEEET_S9_>
    2caa:	48 89 c1             	mov    %rax,%rcx
    2cad:	48 8b 45 d8          	mov    -0x28(%rbp),%rax
    2cb1:	48 89 c2             	mov    %rax,%rdx
    2cb4:	48 89 de             	mov    %rbx,%rsi
    2cb7:	48 89 cf             	mov    %rcx,%rdi
    2cba:	e8 86 05 00 00       	callq  3245 <_ZSt23__copy_move_backward_a2ILb1EN9__gnu_cxx17__normal_iteratorIPSt4pairIiiESt6vectorIS3_SaIS3_EEEES8_ET1_T0_SA_S9_>
    2cbf:	48 83 c4 28          	add    $0x28,%rsp
    2cc3:	5b                   	pop    %rbx
    2cc4:	5d                   	pop    %rbp
    2cc5:	c3                   	retq   

0000000000002cc6 <_ZNSt4pairIiiEaSEOS0_>:
    2cc6:	f3 0f 1e fa          	endbr64 
    2cca:	55                   	push   %rbp
    2ccb:	48 89 e5             	mov    %rsp,%rbp
    2cce:	48 83 ec 10          	sub    $0x10,%rsp
    2cd2:	48 89 7d f8          	mov    %rdi,-0x8(%rbp)
    2cd6:	48 89 75 f0          	mov    %rsi,-0x10(%rbp)
    2cda:	48 8b 45 f0          	mov    -0x10(%rbp),%rax
    2cde:	48 89 c7             	mov    %rax,%rdi
    2ce1:	e8 dc e9 ff ff       	callq  16c2 <_ZSt7forwardIiEOT_RNSt16remove_referenceIS0_E4typeE>
    2ce6:	8b 10                	mov    (%rax),%edx
    2ce8:	48 8b 45 f8          	mov    -0x8(%rbp),%rax
    2cec:	89 10                	mov    %edx,(%rax)
    2cee:	48 8b 45 f0          	mov    -0x10(%rbp),%rax
    2cf2:	48 83 c0 04          	add    $0x4,%rax
    2cf6:	48 89 c7             	mov    %rax,%rdi
    2cf9:	e8 c4 e9 ff ff       	callq  16c2 <_ZSt7forwardIiEOT_RNSt16remove_referenceIS0_E4typeE>
    2cfe:	8b 10                	mov    (%rax),%edx
    2d00:	48 8b 45 f8          	mov    -0x8(%rbp),%rax
    2d04:	89 50 04             	mov    %edx,0x4(%rax)
    2d07:	48 8b 45 f8          	mov    -0x8(%rbp),%rax
    2d0b:	c9                   	leaveq 
    2d0c:	c3                   	retq   

0000000000002d0d <_ZSt25__unguarded_linear_insertIN9__gnu_cxx17__normal_iteratorIPSt4pairIiiESt6vectorIS3_SaIS3_EEEENS0_5__ops14_Val_less_iterEEvT_T0_>:
    2d0d:	f3 0f 1e fa          	endbr64 
    2d11:	55                   	push   %rbp
    2d12:	48 89 e5             	mov    %rsp,%rbp
    2d15:	53                   	push   %rbx
    2d16:	48 83 ec 38          	sub    $0x38,%rsp
    2d1a:	48 89 7d c8          	mov    %rdi,-0x38(%rbp)
    2d1e:	64 48 8b 04 25 28 00 	mov    %fs:0x28,%rax
    2d25:	00 00 
    2d27:	48 89 45 e8          	mov    %rax,-0x18(%rbp)
    2d2b:	31 c0                	xor    %eax,%eax
    2d2d:	48 8d 45 c8          	lea    -0x38(%rbp),%rax
    2d31:	48 89 c7             	mov    %rax,%rdi
    2d34:	e8 63 ec ff ff       	callq  199c <_ZNK9__gnu_cxx17__normal_iteratorIPSt4pairIiiESt6vectorIS2_SaIS2_EEEdeEv>
    2d39:	48 89 c7             	mov    %rax,%rdi
    2d3c:	e8 79 ed ff ff       	callq  1aba <_ZSt4moveIRSt4pairIiiEEONSt16remove_referenceIT_E4typeEOS4_>
    2d41:	48 8b 00             	mov    (%rax),%rax
    2d44:	48 89 45 e0          	mov    %rax,-0x20(%rbp)
    2d48:	48 8b 45 c8          	mov    -0x38(%rbp),%rax
    2d4c:	48 89 45 d8          	mov    %rax,-0x28(%rbp)
    2d50:	48 8d 45 d8          	lea    -0x28(%rbp),%rax
    2d54:	48 89 c7             	mov    %rax,%rdi
    2d57:	e8 20 04 00 00       	callq  317c <_ZN9__gnu_cxx17__normal_iteratorIPSt4pairIiiESt6vectorIS2_SaIS2_EEEmmEv>
    2d5c:	48 8b 55 d8          	mov    -0x28(%rbp),%rdx
    2d60:	48 8d 4d e0          	lea    -0x20(%rbp),%rcx
    2d64:	48 8d 45 c7          	lea    -0x39(%rbp),%rax
    2d68:	48 89 ce             	mov    %rcx,%rsi
    2d6b:	48 89 c7             	mov    %rax,%rdi
    2d6e:	e8 41 05 00 00       	callq  32b4 <_ZNK9__gnu_cxx5__ops14_Val_less_iterclISt4pairIiiENS_17__normal_iteratorIPS4_St6vectorIS4_SaIS4_EEEEEEbRT_T0_>
    2d73:	84 c0                	test   %al,%al
    2d75:	74 44                	je     2dbb <_ZSt25__unguarded_linear_insertIN9__gnu_cxx17__normal_iteratorIPSt4pairIiiESt6vectorIS3_SaIS3_EEEENS0_5__ops14_Val_less_iterEEvT_T0_+0xae>
    2d77:	48 8d 45 d8          	lea    -0x28(%rbp),%rax
    2d7b:	48 89 c7             	mov    %rax,%rdi
    2d7e:	e8 19 ec ff ff       	callq  199c <_ZNK9__gnu_cxx17__normal_iteratorIPSt4pairIiiESt6vectorIS2_SaIS2_EEEdeEv>
    2d83:	48 89 c7             	mov    %rax,%rdi
    2d86:	e8 2f ed ff ff       	callq  1aba <_ZSt4moveIRSt4pairIiiEEONSt16remove_referenceIT_E4typeEOS4_>
    2d8b:	48 89 c3             	mov    %rax,%rbx
    2d8e:	48 8d 45 c8          	lea    -0x38(%rbp),%rax
    2d92:	48 89 c7             	mov    %rax,%rdi
    2d95:	e8 02 ec ff ff       	callq  199c <_ZNK9__gnu_cxx17__normal_iteratorIPSt4pairIiiESt6vectorIS2_SaIS2_EEEdeEv>
    2d9a:	48 89 de             	mov    %rbx,%rsi
    2d9d:	48 89 c7             	mov    %rax,%rdi
    2da0:	e8 21 ff ff ff       	callq  2cc6 <_ZNSt4pairIiiEaSEOS0_>
    2da5:	48 8b 45 d8          	mov    -0x28(%rbp),%rax
    2da9:	48 89 45 c8          	mov    %rax,-0x38(%rbp)
    2dad:	48 8d 45 d8          	lea    -0x28(%rbp),%rax
    2db1:	48 89 c7             	mov    %rax,%rdi
    2db4:	e8 c3 03 00 00       	callq  317c <_ZN9__gnu_cxx17__normal_iteratorIPSt4pairIiiESt6vectorIS2_SaIS2_EEEmmEv>
    2db9:	eb a1                	jmp    2d5c <_ZSt25__unguarded_linear_insertIN9__gnu_cxx17__normal_iteratorIPSt4pairIiiESt6vectorIS3_SaIS3_EEEENS0_5__ops14_Val_less_iterEEvT_T0_+0x4f>
    2dbb:	48 8d 45 e0          	lea    -0x20(%rbp),%rax
    2dbf:	48 89 c7             	mov    %rax,%rdi
    2dc2:	e8 f3 ec ff ff       	callq  1aba <_ZSt4moveIRSt4pairIiiEEONSt16remove_referenceIT_E4typeEOS4_>
    2dc7:	48 89 c3             	mov    %rax,%rbx
    2dca:	48 8d 45 c8          	lea    -0x38(%rbp),%rax
    2dce:	48 89 c7             	mov    %rax,%rdi
    2dd1:	e8 c6 eb ff ff       	callq  199c <_ZNK9__gnu_cxx17__normal_iteratorIPSt4pairIiiESt6vectorIS2_SaIS2_EEEdeEv>
    2dd6:	48 89 de             	mov    %rbx,%rsi
    2dd9:	48 89 c7             	mov    %rax,%rdi
    2ddc:	e8 e5 fe ff ff       	callq  2cc6 <_ZNSt4pairIiiEaSEOS0_>
    2de1:	90                   	nop
    2de2:	48 8b 45 e8          	mov    -0x18(%rbp),%rax
    2de6:	64 48 33 04 25 28 00 	xor    %fs:0x28,%rax
    2ded:	00 00 
    2def:	74 05                	je     2df6 <_ZSt25__unguarded_linear_insertIN9__gnu_cxx17__normal_iteratorIPSt4pairIiiESt6vectorIS3_SaIS3_EEEENS0_5__ops14_Val_less_iterEEvT_T0_+0xe9>
    2df1:	e8 ba e3 ff ff       	callq  11b0 <__stack_chk_fail@plt>
    2df6:	48 83 c4 38          	add    $0x38,%rsp
    2dfa:	5b                   	pop    %rbx
    2dfb:	5d                   	pop    %rbp
    2dfc:	c3                   	retq   

0000000000002dfd <_ZNSt6vectorISt4pairIiiESaIS1_EE11_S_max_sizeERKS2_>:
    2dfd:	f3 0f 1e fa          	endbr64 
    2e01:	55                   	push   %rbp
    2e02:	48 89 e5             	mov    %rsp,%rbp
    2e05:	48 83 ec 30          	sub    $0x30,%rsp
    2e09:	48 89 7d d8          	mov    %rdi,-0x28(%rbp)
    2e0d:	64 48 8b 04 25 28 00 	mov    %fs:0x28,%rax
    2e14:	00 00 
    2e16:	48 89 45 f8          	mov    %rax,-0x8(%rbp)
    2e1a:	31 c0                	xor    %eax,%eax
    2e1c:	48 b8 ff ff ff ff ff 	movabs $0xfffffffffffffff,%rax
    2e23:	ff ff 0f 
    2e26:	48 89 45 e8          	mov    %rax,-0x18(%rbp)
    2e2a:	48 8b 45 d8          	mov    -0x28(%rbp),%rax
    2e2e:	48 89 c7             	mov    %rax,%rdi
    2e31:	e8 b6 04 00 00       	callq  32ec <_ZNSt16allocator_traitsISaISt4pairIiiEEE8max_sizeERKS2_>
    2e36:	48 89 45 f0          	mov    %rax,-0x10(%rbp)
    2e3a:	48 8d 55 f0          	lea    -0x10(%rbp),%rdx
    2e3e:	48 8d 45 e8          	lea    -0x18(%rbp),%rax
    2e42:	48 89 d6             	mov    %rdx,%rsi
    2e45:	48 89 c7             	mov    %rax,%rdi
    2e48:	e8 b7 e7 ff ff       	callq  1604 <_ZSt3minImERKT_S2_S2_>
    2e4d:	48 8b 00             	mov    (%rax),%rax
    2e50:	48 8b 4d f8          	mov    -0x8(%rbp),%rcx
    2e54:	64 48 33 0c 25 28 00 	xor    %fs:0x28,%rcx
    2e5b:	00 00 
    2e5d:	74 05                	je     2e64 <_ZNSt6vectorISt4pairIiiESaIS1_EE11_S_max_sizeERKS2_+0x67>
    2e5f:	e8 4c e3 ff ff       	callq  11b0 <__stack_chk_fail@plt>
    2e64:	c9                   	leaveq 
    2e65:	c3                   	retq   

0000000000002e66 <_ZNKSt12_Vector_baseISt4pairIiiESaIS1_EE19_M_get_Tp_allocatorEv>:
    2e66:	f3 0f 1e fa          	endbr64 
    2e6a:	55                   	push   %rbp
    2e6b:	48 89 e5             	mov    %rsp,%rbp
    2e6e:	48 89 7d f8          	mov    %rdi,-0x8(%rbp)
    2e72:	48 8b 45 f8          	mov    -0x8(%rbp),%rax
    2e76:	5d                   	pop    %rbp
    2e77:	c3                   	retq   

0000000000002e78 <_ZN9__gnu_cxx13new_allocatorISt4pairIiiEE8allocateEmPKv>:
    2e78:	f3 0f 1e fa          	endbr64 
    2e7c:	55                   	push   %rbp
    2e7d:	48 89 e5             	mov    %rsp,%rbp
    2e80:	48 83 ec 20          	sub    $0x20,%rsp
    2e84:	48 89 7d f8          	mov    %rdi,-0x8(%rbp)
    2e88:	48 89 75 f0          	mov    %rsi,-0x10(%rbp)
    2e8c:	48 89 55 e8          	mov    %rdx,-0x18(%rbp)
    2e90:	48 8b 45 f8          	mov    -0x8(%rbp),%rax
    2e94:	48 89 c7             	mov    %rax,%rdi
    2e97:	e8 6e 04 00 00       	callq  330a <_ZNK9__gnu_cxx13new_allocatorISt4pairIiiEE8max_sizeEv>
    2e9c:	48 39 45 f0          	cmp    %rax,-0x10(%rbp)
    2ea0:	0f 97 c0             	seta   %al
    2ea3:	84 c0                	test   %al,%al
    2ea5:	74 05                	je     2eac <_ZN9__gnu_cxx13new_allocatorISt4pairIiiEE8allocateEmPKv+0x34>
    2ea7:	e8 84 e2 ff ff       	callq  1130 <_ZSt17__throw_bad_allocv@plt>
    2eac:	48 8b 45 f0          	mov    -0x10(%rbp),%rax
    2eb0:	48 c1 e0 03          	shl    $0x3,%rax
    2eb4:	48 89 c7             	mov    %rax,%rdi
    2eb7:	e8 e4 e2 ff ff       	callq  11a0 <_Znwm@plt>
    2ebc:	c9                   	leaveq 
    2ebd:	c3                   	retq   

0000000000002ebe <_ZSt12__relocate_aIPSt4pairIiiES2_SaIS1_EET0_T_S5_S4_RT1_>:
    2ebe:	f3 0f 1e fa          	endbr64 
    2ec2:	55                   	push   %rbp
    2ec3:	48 89 e5             	mov    %rsp,%rbp
    2ec6:	41 54                	push   %r12
    2ec8:	53                   	push   %rbx
    2ec9:	48 83 ec 20          	sub    $0x20,%rsp
    2ecd:	48 89 7d e8          	mov    %rdi,-0x18(%rbp)
    2ed1:	48 89 75 e0          	mov    %rsi,-0x20(%rbp)
    2ed5:	48 89 55 d8          	mov    %rdx,-0x28(%rbp)
    2ed9:	48 89 4d d0          	mov    %rcx,-0x30(%rbp)
    2edd:	48 8b 45 d8          	mov    -0x28(%rbp),%rax
    2ee1:	48 89 c7             	mov    %rax,%rdi
    2ee4:	e8 39 04 00 00       	callq  3322 <_ZSt12__niter_baseIPSt4pairIiiEET_S3_>
    2ee9:	49 89 c4             	mov    %rax,%r12
    2eec:	48 8b 45 e0          	mov    -0x20(%rbp),%rax
    2ef0:	48 89 c7             	mov    %rax,%rdi
    2ef3:	e8 2a 04 00 00       	callq  3322 <_ZSt12__niter_baseIPSt4pairIiiEET_S3_>
    2ef8:	48 89 c3             	mov    %rax,%rbx
    2efb:	48 8b 45 e8          	mov    -0x18(%rbp),%rax
    2eff:	48 89 c7             	mov    %rax,%rdi
    2f02:	e8 1b 04 00 00       	callq  3322 <_ZSt12__niter_baseIPSt4pairIiiEET_S3_>
    2f07:	48 89 c7             	mov    %rax,%rdi
    2f0a:	48 8b 45 d0          	mov    -0x30(%rbp),%rax
    2f0e:	48 89 c1             	mov    %rax,%rcx
    2f11:	4c 89 e2             	mov    %r12,%rdx
    2f14:	48 89 de             	mov    %rbx,%rsi
    2f17:	e8 18 04 00 00       	callq  3334 <_ZSt14__relocate_a_1IPSt4pairIiiES2_SaIS1_EET0_T_S5_S4_RT1_>
    2f1c:	48 83 c4 20          	add    $0x20,%rsp
    2f20:	5b                   	pop    %rbx
    2f21:	41 5c                	pop    %r12
    2f23:	5d                   	pop    %rbp
    2f24:	c3                   	retq   
    2f25:	90                   	nop

0000000000002f26 <_ZNSt13move_iteratorIPSt4pairIiiEEC1ES2_>:
    2f26:	f3 0f 1e fa          	endbr64 
    2f2a:	55                   	push   %rbp
    2f2b:	48 89 e5             	mov    %rsp,%rbp
    2f2e:	48 89 7d f8          	mov    %rdi,-0x8(%rbp)
    2f32:	48 89 75 f0          	mov    %rsi,-0x10(%rbp)
    2f36:	48 8b 45 f8          	mov    -0x8(%rbp),%rax
    2f3a:	48 8b 55 f0          	mov    -0x10(%rbp),%rdx
    2f3e:	48 89 10             	mov    %rdx,(%rax)
    2f41:	90                   	nop
    2f42:	5d                   	pop    %rbp
    2f43:	c3                   	retq   

0000000000002f44 <_ZSt18uninitialized_copyISt13move_iteratorIPSt4pairIiiEES3_ET0_T_S6_S5_>:
    2f44:	f3 0f 1e fa          	endbr64 
    2f48:	55                   	push   %rbp
    2f49:	48 89 e5             	mov    %rsp,%rbp
    2f4c:	48 83 ec 30          	sub    $0x30,%rsp
    2f50:	48 89 7d e8          	mov    %rdi,-0x18(%rbp)
    2f54:	48 89 75 e0          	mov    %rsi,-0x20(%rbp)
    2f58:	48 89 55 d8          	mov    %rdx,-0x28(%rbp)
    2f5c:	c6 45 ff 01          	movb   $0x1,-0x1(%rbp)
    2f60:	48 8b 55 d8          	mov    -0x28(%rbp),%rdx
    2f64:	48 8b 4d e0          	mov    -0x20(%rbp),%rcx
    2f68:	48 8b 45 e8          	mov    -0x18(%rbp),%rax
    2f6c:	48 89 ce             	mov    %rcx,%rsi
    2f6f:	48 89 c7             	mov    %rax,%rdi
    2f72:	e8 33 04 00 00       	callq  33aa <_ZNSt20__uninitialized_copyILb0EE13__uninit_copyISt13move_iteratorIPSt4pairIiiEES5_EET0_T_S8_S7_>
    2f77:	c9                   	leaveq 
    2f78:	c3                   	retq   

0000000000002f79 <_ZSt11__make_heapIN9__gnu_cxx17__normal_iteratorIPSt4pairIiiESt6vectorIS3_SaIS3_EEEENS0_5__ops15_Iter_less_iterEEvT_SB_RT0_>:
    2f79:	f3 0f 1e fa          	endbr64 
    2f7d:	55                   	push   %rbp
    2f7e:	48 89 e5             	mov    %rsp,%rbp
    2f81:	48 83 ec 50          	sub    $0x50,%rsp
    2f85:	48 89 7d c8          	mov    %rdi,-0x38(%rbp)
    2f89:	48 89 75 c0          	mov    %rsi,-0x40(%rbp)
    2f8d:	48 89 55 b8          	mov    %rdx,-0x48(%rbp)
    2f91:	64 48 8b 04 25 28 00 	mov    %fs:0x28,%rax
    2f98:	00 00 
    2f9a:	48 89 45 f8          	mov    %rax,-0x8(%rbp)
    2f9e:	31 c0                	xor    %eax,%eax
    2fa0:	48 8d 55 c8          	lea    -0x38(%rbp),%rdx
    2fa4:	48 8d 45 c0          	lea    -0x40(%rbp),%rax
    2fa8:	48 89 d6             	mov    %rdx,%rsi
    2fab:	48 89 c7             	mov    %rax,%rdi
    2fae:	e8 54 f0 ff ff       	callq  2007 <_ZN9__gnu_cxxmiIPSt4pairIiiESt6vectorIS2_SaIS2_EEEENS_17__normal_iteratorIT_T0_E15difference_typeERKSA_SD_>
    2fb3:	48 83 f8 01          	cmp    $0x1,%rax
    2fb7:	0f 9e c0             	setle  %al
    2fba:	84 c0                	test   %al,%al
    2fbc:	0f 85 96 00 00 00    	jne    3058 <_ZSt11__make_heapIN9__gnu_cxx17__normal_iteratorIPSt4pairIiiESt6vectorIS3_SaIS3_EEEENS0_5__ops15_Iter_less_iterEEvT_SB_RT0_+0xdf>
    2fc2:	48 8d 55 c8          	lea    -0x38(%rbp),%rdx
    2fc6:	48 8d 45 c0          	lea    -0x40(%rbp),%rax
    2fca:	48 89 d6             	mov    %rdx,%rsi
    2fcd:	48 89 c7             	mov    %rax,%rdi
    2fd0:	e8 32 f0 ff ff       	callq  2007 <_ZN9__gnu_cxxmiIPSt4pairIiiESt6vectorIS2_SaIS2_EEEENS_17__normal_iteratorIT_T0_E15difference_typeERKSA_SD_>
    2fd5:	48 89 45 e8          	mov    %rax,-0x18(%rbp)
    2fd9:	48 8b 45 e8          	mov    -0x18(%rbp),%rax
    2fdd:	48 83 e8 02          	sub    $0x2,%rax
    2fe1:	48 89 c2             	mov    %rax,%rdx
    2fe4:	48 c1 ea 3f          	shr    $0x3f,%rdx
    2fe8:	48 01 d0             	add    %rdx,%rax
    2feb:	48 d1 f8             	sar    %rax
    2fee:	48 89 45 e0          	mov    %rax,-0x20(%rbp)
    2ff2:	48 8b 55 e0          	mov    -0x20(%rbp),%rdx
    2ff6:	48 8d 45 c8          	lea    -0x38(%rbp),%rax
    2ffa:	48 89 d6             	mov    %rdx,%rsi
    2ffd:	48 89 c7             	mov    %rax,%rdi
    3000:	e8 33 f5 ff ff       	callq  2538 <_ZNK9__gnu_cxx17__normal_iteratorIPSt4pairIiiESt6vectorIS2_SaIS2_EEEplEl>
    3005:	48 89 45 d8          	mov    %rax,-0x28(%rbp)
    3009:	48 8d 45 d8          	lea    -0x28(%rbp),%rax
    300d:	48 89 c7             	mov    %rax,%rdi
    3010:	e8 87 e9 ff ff       	callq  199c <_ZNK9__gnu_cxx17__normal_iteratorIPSt4pairIiiESt6vectorIS2_SaIS2_EEEdeEv>
    3015:	48 89 c7             	mov    %rax,%rdi
    3018:	e8 9d ea ff ff       	callq  1aba <_ZSt4moveIRSt4pairIiiEEONSt16remove_referenceIT_E4typeEOS4_>
    301d:	48 8b 00             	mov    (%rax),%rax
    3020:	48 89 45 f0          	mov    %rax,-0x10(%rbp)
    3024:	48 8d 45 f0          	lea    -0x10(%rbp),%rax
    3028:	48 89 c7             	mov    %rax,%rdi
    302b:	e8 8a ea ff ff       	callq  1aba <_ZSt4moveIRSt4pairIiiEEONSt16remove_referenceIT_E4typeEOS4_>
    3030:	48 89 c1             	mov    %rax,%rcx
    3033:	48 8b 55 e8          	mov    -0x18(%rbp),%rdx
    3037:	48 8b 75 e0          	mov    -0x20(%rbp),%rsi
    303b:	48 8b 45 c8          	mov    -0x38(%rbp),%rax
    303f:	48 8b 09             	mov    (%rcx),%rcx
    3042:	48 89 c7             	mov    %rax,%rdi
    3045:	e8 19 04 00 00       	callq  3463 <_ZSt13__adjust_heapIN9__gnu_cxx17__normal_iteratorIPSt4pairIiiESt6vectorIS3_SaIS3_EEEElS3_NS0_5__ops15_Iter_less_iterEEvT_T0_SC_T1_T2_>
    304a:	48 83 7d e0 00       	cmpq   $0x0,-0x20(%rbp)
    304f:	74 0a                	je     305b <_ZSt11__make_heapIN9__gnu_cxx17__normal_iteratorIPSt4pairIiiESt6vectorIS3_SaIS3_EEEENS0_5__ops15_Iter_less_iterEEvT_SB_RT0_+0xe2>
    3051:	48 83 6d e0 01       	subq   $0x1,-0x20(%rbp)
    3056:	eb 9a                	jmp    2ff2 <_ZSt11__make_heapIN9__gnu_cxx17__normal_iteratorIPSt4pairIiiESt6vectorIS3_SaIS3_EEEENS0_5__ops15_Iter_less_iterEEvT_SB_RT0_+0x79>
    3058:	90                   	nop
    3059:	eb 01                	jmp    305c <_ZSt11__make_heapIN9__gnu_cxx17__normal_iteratorIPSt4pairIiiESt6vectorIS3_SaIS3_EEEENS0_5__ops15_Iter_less_iterEEvT_SB_RT0_+0xe3>
    305b:	90                   	nop
    305c:	48 8b 45 f8          	mov    -0x8(%rbp),%rax
    3060:	64 48 33 04 25 28 00 	xor    %fs:0x28,%rax
    3067:	00 00 
    3069:	74 05                	je     3070 <_ZSt11__make_heapIN9__gnu_cxx17__normal_iteratorIPSt4pairIiiESt6vectorIS3_SaIS3_EEEENS0_5__ops15_Iter_less_iterEEvT_SB_RT0_+0xf7>
    306b:	e8 40 e1 ff ff       	callq  11b0 <__stack_chk_fail@plt>
    3070:	c9                   	leaveq 
    3071:	c3                   	retq   

0000000000003072 <_ZN9__gnu_cxxltIPSt4pairIiiESt6vectorIS2_SaIS2_EEEEbRKNS_17__normal_iteratorIT_T0_EESC_>:
    3072:	f3 0f 1e fa          	endbr64 
    3076:	55                   	push   %rbp
    3077:	48 89 e5             	mov    %rsp,%rbp
    307a:	53                   	push   %rbx
    307b:	48 83 ec 18          	sub    $0x18,%rsp
    307f:	48 89 7d e8          	mov    %rdi,-0x18(%rbp)
    3083:	48 89 75 e0          	mov    %rsi,-0x20(%rbp)
    3087:	48 8b 45 e8          	mov    -0x18(%rbp),%rax
    308b:	48 89 c7             	mov    %rax,%rdi
    308e:	e8 6b eb ff ff       	callq  1bfe <_ZNK9__gnu_cxx17__normal_iteratorIPSt4pairIiiESt6vectorIS2_SaIS2_EEE4baseEv>
    3093:	48 8b 18             	mov    (%rax),%rbx
    3096:	48 8b 45 e0          	mov    -0x20(%rbp),%rax
    309a:	48 89 c7             	mov    %rax,%rdi
    309d:	e8 5c eb ff ff       	callq  1bfe <_ZNK9__gnu_cxx17__normal_iteratorIPSt4pairIiiESt6vectorIS2_SaIS2_EEE4baseEv>
    30a2:	48 8b 00             	mov    (%rax),%rax
    30a5:	48 39 c3             	cmp    %rax,%rbx
    30a8:	0f 92 c0             	setb   %al
    30ab:	48 83 c4 18          	add    $0x18,%rsp
    30af:	5b                   	pop    %rbx
    30b0:	5d                   	pop    %rbp
    30b1:	c3                   	retq   

00000000000030b2 <_ZSt10__pop_heapIN9__gnu_cxx17__normal_iteratorIPSt4pairIiiESt6vectorIS3_SaIS3_EEEENS0_5__ops15_Iter_less_iterEEvT_SB_SB_RT0_>:
    30b2:	f3 0f 1e fa          	endbr64 
    30b6:	55                   	push   %rbp
    30b7:	48 89 e5             	mov    %rsp,%rbp
    30ba:	53                   	push   %rbx
    30bb:	48 83 ec 38          	sub    $0x38,%rsp
    30bf:	48 89 7d d8          	mov    %rdi,-0x28(%rbp)
    30c3:	48 89 75 d0          	mov    %rsi,-0x30(%rbp)
    30c7:	48 89 55 c8          	mov    %rdx,-0x38(%rbp)
    30cb:	48 89 4d c0          	mov    %rcx,-0x40(%rbp)
    30cf:	64 48 8b 04 25 28 00 	mov    %fs:0x28,%rax
    30d6:	00 00 
    30d8:	48 89 45 e8          	mov    %rax,-0x18(%rbp)
    30dc:	31 c0                	xor    %eax,%eax
    30de:	48 8d 45 c8          	lea    -0x38(%rbp),%rax
    30e2:	48 89 c7             	mov    %rax,%rdi
    30e5:	e8 b2 e8 ff ff       	callq  199c <_ZNK9__gnu_cxx17__normal_iteratorIPSt4pairIiiESt6vectorIS2_SaIS2_EEEdeEv>
    30ea:	48 89 c7             	mov    %rax,%rdi
    30ed:	e8 c8 e9 ff ff       	callq  1aba <_ZSt4moveIRSt4pairIiiEEONSt16remove_referenceIT_E4typeEOS4_>
    30f2:	48 8b 00             	mov    (%rax),%rax
    30f5:	48 89 45 e0          	mov    %rax,-0x20(%rbp)
    30f9:	48 8d 45 d8          	lea    -0x28(%rbp),%rax
    30fd:	48 89 c7             	mov    %rax,%rdi
    3100:	e8 97 e8 ff ff       	callq  199c <_ZNK9__gnu_cxx17__normal_iteratorIPSt4pairIiiESt6vectorIS2_SaIS2_EEEdeEv>
    3105:	48 89 c7             	mov    %rax,%rdi
    3108:	e8 ad e9 ff ff       	callq  1aba <_ZSt4moveIRSt4pairIiiEEONSt16remove_referenceIT_E4typeEOS4_>
    310d:	48 89 c3             	mov    %rax,%rbx
    3110:	48 8d 45 c8          	lea    -0x38(%rbp),%rax
    3114:	48 89 c7             	mov    %rax,%rdi
    3117:	e8 80 e8 ff ff       	callq  199c <_ZNK9__gnu_cxx17__normal_iteratorIPSt4pairIiiESt6vectorIS2_SaIS2_EEEdeEv>
    311c:	48 89 de             	mov    %rbx,%rsi
    311f:	48 89 c7             	mov    %rax,%rdi
    3122:	e8 9f fb ff ff       	callq  2cc6 <_ZNSt4pairIiiEaSEOS0_>
    3127:	48 8d 45 e0          	lea    -0x20(%rbp),%rax
    312b:	48 89 c7             	mov    %rax,%rdi
    312e:	e8 87 e9 ff ff       	callq  1aba <_ZSt4moveIRSt4pairIiiEEONSt16remove_referenceIT_E4typeEOS4_>
    3133:	48 89 c3             	mov    %rax,%rbx
    3136:	48 8d 55 d8          	lea    -0x28(%rbp),%rdx
    313a:	48 8d 45 d0          	lea    -0x30(%rbp),%rax
    313e:	48 89 d6             	mov    %rdx,%rsi
    3141:	48 89 c7             	mov    %rax,%rdi
    3144:	e8 be ee ff ff       	callq  2007 <_ZN9__gnu_cxxmiIPSt4pairIiiESt6vectorIS2_SaIS2_EEEENS_17__normal_iteratorIT_T0_E15difference_typeERKSA_SD_>
    3149:	48 89 c2             	mov    %rax,%rdx
    314c:	48 8b 45 d8          	mov    -0x28(%rbp),%rax
    3150:	48 8b 0b             	mov    (%rbx),%rcx
    3153:	be 00 00 00 00       	mov    $0x0,%esi
    3158:	48 89 c7             	mov    %rax,%rdi
    315b:	e8 03 03 00 00       	callq  3463 <_ZSt13__adjust_heapIN9__gnu_cxx17__normal_iteratorIPSt4pairIiiESt6vectorIS3_SaIS3_EEEElS3_NS0_5__ops15_Iter_less_iterEEvT_T0_SC_T1_T2_>
    3160:	90                   	nop
    3161:	48 8b 45 e8          	mov    -0x18(%rbp),%rax
    3165:	64 48 33 04 25 28 00 	xor    %fs:0x28,%rax
    316c:	00 00 
    316e:	74 05                	je     3175 <_ZSt10__pop_heapIN9__gnu_cxx17__normal_iteratorIPSt4pairIiiESt6vectorIS3_SaIS3_EEEENS0_5__ops15_Iter_less_iterEEvT_SB_SB_RT0_+0xc3>
    3170:	e8 3b e0 ff ff       	callq  11b0 <__stack_chk_fail@plt>
    3175:	48 83 c4 38          	add    $0x38,%rsp
    3179:	5b                   	pop    %rbx
    317a:	5d                   	pop    %rbp
    317b:	c3                   	retq   

000000000000317c <_ZN9__gnu_cxx17__normal_iteratorIPSt4pairIiiESt6vectorIS2_SaIS2_EEEmmEv>:
    317c:	f3 0f 1e fa          	endbr64 
    3180:	55                   	push   %rbp
    3181:	48 89 e5             	mov    %rsp,%rbp
    3184:	48 89 7d f8          	mov    %rdi,-0x8(%rbp)
    3188:	48 8b 45 f8          	mov    -0x8(%rbp),%rax
    318c:	48 8b 00             	mov    (%rax),%rax
    318f:	48 8d 50 f8          	lea    -0x8(%rax),%rdx
    3193:	48 8b 45 f8          	mov    -0x8(%rbp),%rax
    3197:	48 89 10             	mov    %rdx,(%rax)
    319a:	48 8b 45 f8          	mov    -0x8(%rbp),%rax
    319e:	5d                   	pop    %rbp
    319f:	c3                   	retq   

00000000000031a0 <_ZStltIiiEbRKSt4pairIT_T0_ES5_>:
    31a0:	f3 0f 1e fa          	endbr64 
    31a4:	55                   	push   %rbp
    31a5:	48 89 e5             	mov    %rsp,%rbp
    31a8:	48 89 7d f8          	mov    %rdi,-0x8(%rbp)
    31ac:	48 89 75 f0          	mov    %rsi,-0x10(%rbp)
    31b0:	48 8b 45 f8          	mov    -0x8(%rbp),%rax
    31b4:	8b 10                	mov    (%rax),%edx
    31b6:	48 8b 45 f0          	mov    -0x10(%rbp),%rax
    31ba:	8b 00                	mov    (%rax),%eax
    31bc:	39 c2                	cmp    %eax,%edx
    31be:	7c 22                	jl     31e2 <_ZStltIiiEbRKSt4pairIT_T0_ES5_+0x42>
    31c0:	48 8b 45 f0          	mov    -0x10(%rbp),%rax
    31c4:	8b 10                	mov    (%rax),%edx
    31c6:	48 8b 45 f8          	mov    -0x8(%rbp),%rax
    31ca:	8b 00                	mov    (%rax),%eax
    31cc:	39 c2                	cmp    %eax,%edx
    31ce:	7c 19                	jl     31e9 <_ZStltIiiEbRKSt4pairIT_T0_ES5_+0x49>
    31d0:	48 8b 45 f8          	mov    -0x8(%rbp),%rax
    31d4:	8b 50 04             	mov    0x4(%rax),%edx
    31d7:	48 8b 45 f0          	mov    -0x10(%rbp),%rax
    31db:	8b 40 04             	mov    0x4(%rax),%eax
    31de:	39 c2                	cmp    %eax,%edx
    31e0:	7d 07                	jge    31e9 <_ZStltIiiEbRKSt4pairIT_T0_ES5_+0x49>
    31e2:	b8 01 00 00 00       	mov    $0x1,%eax
    31e7:	eb 05                	jmp    31ee <_ZStltIiiEbRKSt4pairIT_T0_ES5_+0x4e>
    31e9:	b8 00 00 00 00       	mov    $0x0,%eax
    31ee:	5d                   	pop    %rbp
    31ef:	c3                   	retq   

00000000000031f0 <_ZSt9iter_swapIN9__gnu_cxx17__normal_iteratorIPSt4pairIiiESt6vectorIS3_SaIS3_EEEES8_EvT_T0_>:
    31f0:	f3 0f 1e fa          	endbr64 
    31f4:	55                   	push   %rbp
    31f5:	48 89 e5             	mov    %rsp,%rbp
    31f8:	53                   	push   %rbx
    31f9:	48 83 ec 18          	sub    $0x18,%rsp
    31fd:	48 89 7d e8          	mov    %rdi,-0x18(%rbp)
    3201:	48 89 75 e0          	mov    %rsi,-0x20(%rbp)
    3205:	48 8d 45 e0          	lea    -0x20(%rbp),%rax
    3209:	48 89 c7             	mov    %rax,%rdi
    320c:	e8 8b e7 ff ff       	callq  199c <_ZNK9__gnu_cxx17__normal_iteratorIPSt4pairIiiESt6vectorIS2_SaIS2_EEEdeEv>
    3211:	48 89 c3             	mov    %rax,%rbx
    3214:	48 8d 45 e8          	lea    -0x18(%rbp),%rax
    3218:	48 89 c7             	mov    %rax,%rdi
    321b:	e8 7c e7 ff ff       	callq  199c <_ZNK9__gnu_cxx17__normal_iteratorIPSt4pairIiiESt6vectorIS2_SaIS2_EEEdeEv>
    3220:	48 89 de             	mov    %rbx,%rsi
    3223:	48 89 c7             	mov    %rax,%rdi
    3226:	e8 5d 04 00 00       	callq  3688 <_ZSt4swapIiiENSt9enable_ifIXsrSt6__and_IJSt14__is_swappableIT_ES2_IT0_EEE5valueEvE4typeERSt4pairIS3_S5_ESC_>
    322b:	90                   	nop
    322c:	48 83 c4 18          	add    $0x18,%rsp
    3230:	5b                   	pop    %rbx
    3231:	5d                   	pop    %rbp
    3232:	c3                   	retq   

0000000000003233 <_ZSt12__miter_baseIN9__gnu_cxx17__normal_iteratorIPSt4pairIiiESt6vectorIS3_SaIS3_EEEEET_S9_>:
    3233:	f3 0f 1e fa          	endbr64 
    3237:	55                   	push   %rbp
    3238:	48 89 e5             	mov    %rsp,%rbp
    323b:	48 89 7d f8          	mov    %rdi,-0x8(%rbp)
    323f:	48 8b 45 f8          	mov    -0x8(%rbp),%rax
    3243:	5d                   	pop    %rbp
    3244:	c3                   	retq   

0000000000003245 <_ZSt23__copy_move_backward_a2ILb1EN9__gnu_cxx17__normal_iteratorIPSt4pairIiiESt6vectorIS3_SaIS3_EEEES8_ET1_T0_SA_S9_>:
    3245:	f3 0f 1e fa          	endbr64 
    3249:	55                   	push   %rbp
    324a:	48 89 e5             	mov    %rsp,%rbp
    324d:	41 54                	push   %r12
    324f:	53                   	push   %rbx
    3250:	48 83 ec 20          	sub    $0x20,%rsp
    3254:	48 89 7d e8          	mov    %rdi,-0x18(%rbp)
    3258:	48 89 75 e0          	mov    %rsi,-0x20(%rbp)
    325c:	48 89 55 d8          	mov    %rdx,-0x28(%rbp)
    3260:	48 8b 45 d8          	mov    -0x28(%rbp),%rax
    3264:	48 89 c7             	mov    %rax,%rdi
    3267:	e8 46 04 00 00       	callq  36b2 <_ZSt12__niter_baseIPSt4pairIiiESt6vectorIS1_SaIS1_EEET_N9__gnu_cxx17__normal_iteratorIS6_T0_EE>
    326c:	49 89 c4             	mov    %rax,%r12
    326f:	48 8b 45 e0          	mov    -0x20(%rbp),%rax
    3273:	48 89 c7             	mov    %rax,%rdi
    3276:	e8 37 04 00 00       	callq  36b2 <_ZSt12__niter_baseIPSt4pairIiiESt6vectorIS1_SaIS1_EEET_N9__gnu_cxx17__normal_iteratorIS6_T0_EE>
    327b:	48 89 c3             	mov    %rax,%rbx
    327e:	48 8b 45 e8          	mov    -0x18(%rbp),%rax
    3282:	48 89 c7             	mov    %rax,%rdi
    3285:	e8 28 04 00 00       	callq  36b2 <_ZSt12__niter_baseIPSt4pairIiiESt6vectorIS1_SaIS1_EEET_N9__gnu_cxx17__normal_iteratorIS6_T0_EE>
    328a:	4c 89 e2             	mov    %r12,%rdx
    328d:	48 89 de             	mov    %rbx,%rsi
    3290:	48 89 c7             	mov    %rax,%rdi
    3293:	e8 3b 04 00 00       	callq  36d3 <_ZSt22__copy_move_backward_aILb1EPSt4pairIiiES2_ET1_T0_S4_S3_>
    3298:	48 89 c2             	mov    %rax,%rdx
    329b:	48 8b 45 d8          	mov    -0x28(%rbp),%rax
    329f:	48 89 d6             	mov    %rdx,%rsi
    32a2:	48 89 c7             	mov    %rax,%rdi
    32a5:	e8 5e 04 00 00       	callq  3708 <_ZSt12__niter_wrapIN9__gnu_cxx17__normal_iteratorIPSt4pairIiiESt6vectorIS3_SaIS3_EEEES4_ET_S9_T0_>
    32aa:	48 83 c4 20          	add    $0x20,%rsp
    32ae:	5b                   	pop    %rbx
    32af:	41 5c                	pop    %r12
    32b1:	5d                   	pop    %rbp
    32b2:	c3                   	retq   
    32b3:	90                   	nop

00000000000032b4 <_ZNK9__gnu_cxx5__ops14_Val_less_iterclISt4pairIiiENS_17__normal_iteratorIPS4_St6vectorIS4_SaIS4_EEEEEEbRT_T0_>:
    32b4:	f3 0f 1e fa          	endbr64 
    32b8:	55                   	push   %rbp
    32b9:	48 89 e5             	mov    %rsp,%rbp
    32bc:	48 83 ec 20          	sub    $0x20,%rsp
    32c0:	48 89 7d f8          	mov    %rdi,-0x8(%rbp)
    32c4:	48 89 75 f0          	mov    %rsi,-0x10(%rbp)
    32c8:	48 89 55 e8          	mov    %rdx,-0x18(%rbp)
    32cc:	48 8d 45 e8          	lea    -0x18(%rbp),%rax
    32d0:	48 89 c7             	mov    %rax,%rdi
    32d3:	e8 c4 e6 ff ff       	callq  199c <_ZNK9__gnu_cxx17__normal_iteratorIPSt4pairIiiESt6vectorIS2_SaIS2_EEEdeEv>
    32d8:	48 89 c2             	mov    %rax,%rdx
    32db:	48 8b 45 f0          	mov    -0x10(%rbp),%rax
    32df:	48 89 d6             	mov    %rdx,%rsi
    32e2:	48 89 c7             	mov    %rax,%rdi
    32e5:	e8 b6 fe ff ff       	callq  31a0 <_ZStltIiiEbRKSt4pairIT_T0_ES5_>
    32ea:	c9                   	leaveq 
    32eb:	c3                   	retq   

00000000000032ec <_ZNSt16allocator_traitsISaISt4pairIiiEEE8max_sizeERKS2_>:
    32ec:	f3 0f 1e fa          	endbr64 
    32f0:	55                   	push   %rbp
    32f1:	48 89 e5             	mov    %rsp,%rbp
    32f4:	48 83 ec 10          	sub    $0x10,%rsp
    32f8:	48 89 7d f8          	mov    %rdi,-0x8(%rbp)
    32fc:	48 8b 45 f8          	mov    -0x8(%rbp),%rax
    3300:	48 89 c7             	mov    %rax,%rdi
    3303:	e8 02 00 00 00       	callq  330a <_ZNK9__gnu_cxx13new_allocatorISt4pairIiiEE8max_sizeEv>
    3308:	c9                   	leaveq 
    3309:	c3                   	retq   

000000000000330a <_ZNK9__gnu_cxx13new_allocatorISt4pairIiiEE8max_sizeEv>:
    330a:	f3 0f 1e fa          	endbr64 
    330e:	55                   	push   %rbp
    330f:	48 89 e5             	mov    %rsp,%rbp
    3312:	48 89 7d f8          	mov    %rdi,-0x8(%rbp)
    3316:	48 b8 ff ff ff ff ff 	movabs $0xfffffffffffffff,%rax
    331d:	ff ff 0f 
    3320:	5d                   	pop    %rbp
    3321:	c3                   	retq   

0000000000003322 <_ZSt12__niter_baseIPSt4pairIiiEET_S3_>:
    3322:	f3 0f 1e fa          	endbr64 
    3326:	55                   	push   %rbp
    3327:	48 89 e5             	mov    %rsp,%rbp
    332a:	48 89 7d f8          	mov    %rdi,-0x8(%rbp)
    332e:	48 8b 45 f8          	mov    -0x8(%rbp),%rax
    3332:	5d                   	pop    %rbp
    3333:	c3                   	retq   

0000000000003334 <_ZSt14__relocate_a_1IPSt4pairIiiES2_SaIS1_EET0_T_S5_S4_RT1_>:
    3334:	f3 0f 1e fa          	endbr64 
    3338:	55                   	push   %rbp
    3339:	48 89 e5             	mov    %rsp,%rbp
    333c:	53                   	push   %rbx
    333d:	48 83 ec 38          	sub    $0x38,%rsp
    3341:	48 89 7d d8          	mov    %rdi,-0x28(%rbp)
    3345:	48 89 75 d0          	mov    %rsi,-0x30(%rbp)
    3349:	48 89 55 c8          	mov    %rdx,-0x38(%rbp)
    334d:	48 89 4d c0          	mov    %rcx,-0x40(%rbp)
    3351:	48 8b 45 c8          	mov    -0x38(%rbp),%rax
    3355:	48 89 45 e8          	mov    %rax,-0x18(%rbp)
    3359:	48 8b 45 d8          	mov    -0x28(%rbp),%rax
    335d:	48 3b 45 d0          	cmp    -0x30(%rbp),%rax
    3361:	74 3c                	je     339f <_ZSt14__relocate_a_1IPSt4pairIiiES2_SaIS1_EET0_T_S5_S4_RT1_+0x6b>
    3363:	48 8b 45 d8          	mov    -0x28(%rbp),%rax
    3367:	48 89 c7             	mov    %rax,%rdi
    336a:	e8 db 03 00 00       	callq  374a <_ZSt11__addressofISt4pairIiiEEPT_RS2_>
    336f:	48 89 c3             	mov    %rax,%rbx
    3372:	48 8b 45 e8          	mov    -0x18(%rbp),%rax
    3376:	48 89 c7             	mov    %rax,%rdi
    3379:	e8 cc 03 00 00       	callq  374a <_ZSt11__addressofISt4pairIiiEEPT_RS2_>
    337e:	48 89 c1             	mov    %rax,%rcx
    3381:	48 8b 45 c0          	mov    -0x40(%rbp),%rax
    3385:	48 89 c2             	mov    %rax,%rdx
    3388:	48 89 de             	mov    %rbx,%rsi
    338b:	48 89 cf             	mov    %rcx,%rdi
    338e:	e8 c9 03 00 00       	callq  375c <_ZSt19__relocate_object_aISt4pairIiiES1_SaIS1_EEvPT_PT0_RT1_>
    3393:	48 83 45 d8 08       	addq   $0x8,-0x28(%rbp)
    3398:	48 83 45 e8 08       	addq   $0x8,-0x18(%rbp)
    339d:	eb ba                	jmp    3359 <_ZSt14__relocate_a_1IPSt4pairIiiES2_SaIS1_EET0_T_S5_S4_RT1_+0x25>
    339f:	48 8b 45 e8          	mov    -0x18(%rbp),%rax
    33a3:	48 83 c4 38          	add    $0x38,%rsp
    33a7:	5b                   	pop    %rbx
    33a8:	5d                   	pop    %rbp
    33a9:	c3                   	retq   

00000000000033aa <_ZNSt20__uninitialized_copyILb0EE13__uninit_copyISt13move_iteratorIPSt4pairIiiEES5_EET0_T_S8_S7_>:
    33aa:	f3 0f 1e fa          	endbr64 
    33ae:	55                   	push   %rbp
    33af:	48 89 e5             	mov    %rsp,%rbp
    33b2:	53                   	push   %rbx
    33b3:	48 83 ec 38          	sub    $0x38,%rsp
    33b7:	48 89 7d d8          	mov    %rdi,-0x28(%rbp)
    33bb:	48 89 75 d0          	mov    %rsi,-0x30(%rbp)
    33bf:	48 89 55 c8          	mov    %rdx,-0x38(%rbp)
    33c3:	48 8b 45 c8          	mov    -0x38(%rbp),%rax
    33c7:	48 89 45 e8          	mov    %rax,-0x18(%rbp)
    33cb:	48 8d 55 d0          	lea    -0x30(%rbp),%rdx
    33cf:	48 8d 45 d8          	lea    -0x28(%rbp),%rax
    33d3:	48 89 d6             	mov    %rdx,%rsi
    33d6:	48 89 c7             	mov    %rax,%rdi
    33d9:	e8 d9 03 00 00       	callq  37b7 <_ZStneIPSt4pairIiiEEbRKSt13move_iteratorIT_ES7_>
    33de:	84 c0                	test   %al,%al
    33e0:	74 39                	je     341b <_ZNSt20__uninitialized_copyILb0EE13__uninit_copyISt13move_iteratorIPSt4pairIiiEES5_EET0_T_S8_S7_+0x71>
    33e2:	48 8d 45 d8          	lea    -0x28(%rbp),%rax
    33e6:	48 89 c7             	mov    %rax,%rdi
    33e9:	e8 1a 04 00 00       	callq  3808 <_ZNKSt13move_iteratorIPSt4pairIiiEEdeEv>
    33ee:	48 89 c3             	mov    %rax,%rbx
    33f1:	48 8b 45 e8          	mov    -0x18(%rbp),%rax
    33f5:	48 89 c7             	mov    %rax,%rdi
    33f8:	e8 4d 03 00 00       	callq  374a <_ZSt11__addressofISt4pairIiiEEPT_RS2_>
    33fd:	48 89 de             	mov    %rbx,%rsi
    3400:	48 89 c7             	mov    %rax,%rdi
    3403:	e8 15 04 00 00       	callq  381d <_ZSt10_ConstructISt4pairIiiEJS1_EEvPT_DpOT0_>
    3408:	48 8d 45 d8          	lea    -0x28(%rbp),%rax
    340c:	48 89 c7             	mov    %rax,%rdi
    340f:	e8 d0 03 00 00       	callq  37e4 <_ZNSt13move_iteratorIPSt4pairIiiEEppEv>
    3414:	48 83 45 e8 08       	addq   $0x8,-0x18(%rbp)
    3419:	eb b0                	jmp    33cb <_ZNSt20__uninitialized_copyILb0EE13__uninit_copyISt13move_iteratorIPSt4pairIiiEES5_EET0_T_S8_S7_+0x21>
    341b:	48 8b 45 e8          	mov    -0x18(%rbp),%rax
    341f:	eb 3b                	jmp    345c <_ZNSt20__uninitialized_copyILb0EE13__uninit_copyISt13move_iteratorIPSt4pairIiiEES5_EET0_T_S8_S7_+0xb2>
    3421:	f3 0f 1e fa          	endbr64 
    3425:	48 89 c7             	mov    %rax,%rdi
    3428:	e8 13 dd ff ff       	callq  1140 <__cxa_begin_catch@plt>
    342d:	48 8b 55 e8          	mov    -0x18(%rbp),%rdx
    3431:	48 8b 45 c8          	mov    -0x38(%rbp),%rax
    3435:	48 89 d6             	mov    %rdx,%rsi
    3438:	48 89 c7             	mov    %rax,%rdi
    343b:	e8 11 e8 ff ff       	callq  1c51 <_ZSt8_DestroyIPSt4pairIiiEEvT_S3_>
    3440:	e8 8b dd ff ff       	callq  11d0 <__cxa_rethrow@plt>
    3445:	f3 0f 1e fa          	endbr64 
    3449:	48 89 c3             	mov    %rax,%rbx
    344c:	e8 9f dd ff ff       	callq  11f0 <__cxa_end_catch@plt>
    3451:	48 89 d8             	mov    %rbx,%rax
    3454:	48 89 c7             	mov    %rax,%rdi
    3457:	e8 b4 dd ff ff       	callq  1210 <_Unwind_Resume@plt>
    345c:	48 83 c4 38          	add    $0x38,%rsp
    3460:	5b                   	pop    %rbx
    3461:	5d                   	pop    %rbp
    3462:	c3                   	retq   

0000000000003463 <_ZSt13__adjust_heapIN9__gnu_cxx17__normal_iteratorIPSt4pairIiiESt6vectorIS3_SaIS3_EEEElS3_NS0_5__ops15_Iter_less_iterEEvT_T0_SC_T1_T2_>:
    3463:	f3 0f 1e fa          	endbr64 
    3467:	55                   	push   %rbp
    3468:	48 89 e5             	mov    %rsp,%rbp
    346b:	53                   	push   %rbx
    346c:	48 83 ec 68          	sub    $0x68,%rsp
    3470:	48 89 7d b8          	mov    %rdi,-0x48(%rbp)
    3474:	48 89 75 b0          	mov    %rsi,-0x50(%rbp)
    3478:	48 89 55 a8          	mov    %rdx,-0x58(%rbp)
    347c:	48 89 4d a0          	mov    %rcx,-0x60(%rbp)
    3480:	64 48 8b 04 25 28 00 	mov    %fs:0x28,%rax
    3487:	00 00 
    3489:	48 89 45 e8          	mov    %rax,-0x18(%rbp)
    348d:	31 c0                	xor    %eax,%eax
    348f:	48 8b 45 b0          	mov    -0x50(%rbp),%rax
    3493:	48 89 45 e0          	mov    %rax,-0x20(%rbp)
    3497:	48 8b 45 b0          	mov    -0x50(%rbp),%rax
    349b:	48 89 45 d8          	mov    %rax,-0x28(%rbp)
    349f:	48 8b 45 a8          	mov    -0x58(%rbp),%rax
    34a3:	48 83 e8 01          	sub    $0x1,%rax
    34a7:	48 89 c2             	mov    %rax,%rdx
    34aa:	48 c1 ea 3f          	shr    $0x3f,%rdx
    34ae:	48 01 d0             	add    %rdx,%rax
    34b1:	48 d1 f8             	sar    %rax
    34b4:	48 39 45 d8          	cmp    %rax,-0x28(%rbp)
    34b8:	0f 8d c3 00 00 00    	jge    3581 <_ZSt13__adjust_heapIN9__gnu_cxx17__normal_iteratorIPSt4pairIiiESt6vectorIS3_SaIS3_EEEElS3_NS0_5__ops15_Iter_less_iterEEvT_T0_SC_T1_T2_+0x11e>
    34be:	48 8b 45 d8          	mov    -0x28(%rbp),%rax
    34c2:	48 83 c0 01          	add    $0x1,%rax
    34c6:	48 01 c0             	add    %rax,%rax
    34c9:	48 89 45 d8          	mov    %rax,-0x28(%rbp)
    34cd:	48 8b 45 d8          	mov    -0x28(%rbp),%rax
    34d1:	48 8d 50 ff          	lea    -0x1(%rax),%rdx
    34d5:	48 8d 45 b8          	lea    -0x48(%rbp),%rax
    34d9:	48 89 d6             	mov    %rdx,%rsi
    34dc:	48 89 c7             	mov    %rax,%rdi
    34df:	e8 54 f0 ff ff       	callq  2538 <_ZNK9__gnu_cxx17__normal_iteratorIPSt4pairIiiESt6vectorIS2_SaIS2_EEEplEl>
    34e4:	48 89 c3             	mov    %rax,%rbx
    34e7:	48 8b 55 d8          	mov    -0x28(%rbp),%rdx
    34eb:	48 8d 45 b8          	lea    -0x48(%rbp),%rax
    34ef:	48 89 d6             	mov    %rdx,%rsi
    34f2:	48 89 c7             	mov    %rax,%rdi
    34f5:	e8 3e f0 ff ff       	callq  2538 <_ZNK9__gnu_cxx17__normal_iteratorIPSt4pairIiiESt6vectorIS2_SaIS2_EEEplEl>
    34fa:	48 89 c1             	mov    %rax,%rcx
    34fd:	48 8d 45 9f          	lea    -0x61(%rbp),%rax
    3501:	48 89 da             	mov    %rbx,%rdx
    3504:	48 89 ce             	mov    %rcx,%rsi
    3507:	48 89 c7             	mov    %rax,%rdi
    350a:	e8 fd f4 ff ff       	callq  2a0c <_ZNK9__gnu_cxx5__ops15_Iter_less_iterclINS_17__normal_iteratorIPSt4pairIiiESt6vectorIS5_SaIS5_EEEESA_EEbT_T0_>
    350f:	84 c0                	test   %al,%al
    3511:	74 05                	je     3518 <_ZSt13__adjust_heapIN9__gnu_cxx17__normal_iteratorIPSt4pairIiiESt6vectorIS3_SaIS3_EEEElS3_NS0_5__ops15_Iter_less_iterEEvT_T0_SC_T1_T2_+0xb5>
    3513:	48 83 6d d8 01       	subq   $0x1,-0x28(%rbp)
    3518:	48 8b 55 d8          	mov    -0x28(%rbp),%rdx
    351c:	48 8d 45 b8          	lea    -0x48(%rbp),%rax
    3520:	48 89 d6             	mov    %rdx,%rsi
    3523:	48 89 c7             	mov    %rax,%rdi
    3526:	e8 0d f0 ff ff       	callq  2538 <_ZNK9__gnu_cxx17__normal_iteratorIPSt4pairIiiESt6vectorIS2_SaIS2_EEEplEl>
    352b:	48 89 45 d0          	mov    %rax,-0x30(%rbp)
    352f:	48 8d 45 d0          	lea    -0x30(%rbp),%rax
    3533:	48 89 c7             	mov    %rax,%rdi
    3536:	e8 61 e4 ff ff       	callq  199c <_ZNK9__gnu_cxx17__normal_iteratorIPSt4pairIiiESt6vectorIS2_SaIS2_EEEdeEv>
    353b:	48 89 c7             	mov    %rax,%rdi
    353e:	e8 77 e5 ff ff       	callq  1aba <_ZSt4moveIRSt4pairIiiEEONSt16remove_referenceIT_E4typeEOS4_>
    3543:	48 89 c3             	mov    %rax,%rbx
    3546:	48 8b 55 b0          	mov    -0x50(%rbp),%rdx
    354a:	48 8d 45 b8          	lea    -0x48(%rbp),%rax
    354e:	48 89 d6             	mov    %rdx,%rsi
    3551:	48 89 c7             	mov    %rax,%rdi
    3554:	e8 df ef ff ff       	callq  2538 <_ZNK9__gnu_cxx17__normal_iteratorIPSt4pairIiiESt6vectorIS2_SaIS2_EEEplEl>
    3559:	48 89 45 c8          	mov    %rax,-0x38(%rbp)
    355d:	48 8d 45 c8          	lea    -0x38(%rbp),%rax
    3561:	48 89 c7             	mov    %rax,%rdi
    3564:	e8 33 e4 ff ff       	callq  199c <_ZNK9__gnu_cxx17__normal_iteratorIPSt4pairIiiESt6vectorIS2_SaIS2_EEEdeEv>
    3569:	48 89 de             	mov    %rbx,%rsi
    356c:	48 89 c7             	mov    %rax,%rdi
    356f:	e8 52 f7 ff ff       	callq  2cc6 <_ZNSt4pairIiiEaSEOS0_>
    3574:	48 8b 45 d8          	mov    -0x28(%rbp),%rax
    3578:	48 89 45 b0          	mov    %rax,-0x50(%rbp)
    357c:	e9 1e ff ff ff       	jmpq   349f <_ZSt13__adjust_heapIN9__gnu_cxx17__normal_iteratorIPSt4pairIiiESt6vectorIS3_SaIS3_EEEElS3_NS0_5__ops15_Iter_less_iterEEvT_T0_SC_T1_T2_+0x3c>
    3581:	48 8b 45 a8          	mov    -0x58(%rbp),%rax
    3585:	83 e0 01             	and    $0x1,%eax
    3588:	48 85 c0             	test   %rax,%rax
    358b:	0f 85 96 00 00 00    	jne    3627 <_ZSt13__adjust_heapIN9__gnu_cxx17__normal_iteratorIPSt4pairIiiESt6vectorIS3_SaIS3_EEEElS3_NS0_5__ops15_Iter_less_iterEEvT_T0_SC_T1_T2_+0x1c4>
    3591:	48 8b 45 a8          	mov    -0x58(%rbp),%rax
    3595:	48 83 e8 02          	sub    $0x2,%rax
    3599:	48 89 c2             	mov    %rax,%rdx
    359c:	48 c1 ea 3f          	shr    $0x3f,%rdx
    35a0:	48 01 d0             	add    %rdx,%rax
    35a3:	48 d1 f8             	sar    %rax
    35a6:	48 39 45 d8          	cmp    %rax,-0x28(%rbp)
    35aa:	75 7b                	jne    3627 <_ZSt13__adjust_heapIN9__gnu_cxx17__normal_iteratorIPSt4pairIiiESt6vectorIS3_SaIS3_EEEElS3_NS0_5__ops15_Iter_less_iterEEvT_T0_SC_T1_T2_+0x1c4>
    35ac:	48 8b 45 d8          	mov    -0x28(%rbp),%rax
    35b0:	48 83 c0 01          	add    $0x1,%rax
    35b4:	48 01 c0             	add    %rax,%rax
    35b7:	48 89 45 d8          	mov    %rax,-0x28(%rbp)
    35bb:	48 8b 45 d8          	mov    -0x28(%rbp),%rax
    35bf:	48 8d 50 ff          	lea    -0x1(%rax),%rdx
    35c3:	48 8d 45 b8          	lea    -0x48(%rbp),%rax
    35c7:	48 89 d6             	mov    %rdx,%rsi
    35ca:	48 89 c7             	mov    %rax,%rdi
    35cd:	e8 66 ef ff ff       	callq  2538 <_ZNK9__gnu_cxx17__normal_iteratorIPSt4pairIiiESt6vectorIS2_SaIS2_EEEplEl>
    35d2:	48 89 45 d0          	mov    %rax,-0x30(%rbp)
    35d6:	48 8d 45 d0          	lea    -0x30(%rbp),%rax
    35da:	48 89 c7             	mov    %rax,%rdi
    35dd:	e8 ba e3 ff ff       	callq  199c <_ZNK9__gnu_cxx17__normal_iteratorIPSt4pairIiiESt6vectorIS2_SaIS2_EEEdeEv>
    35e2:	48 89 c7             	mov    %rax,%rdi
    35e5:	e8 d0 e4 ff ff       	callq  1aba <_ZSt4moveIRSt4pairIiiEEONSt16remove_referenceIT_E4typeEOS4_>
    35ea:	48 89 c3             	mov    %rax,%rbx
    35ed:	48 8b 55 b0          	mov    -0x50(%rbp),%rdx
    35f1:	48 8d 45 b8          	lea    -0x48(%rbp),%rax
    35f5:	48 89 d6             	mov    %rdx,%rsi
    35f8:	48 89 c7             	mov    %rax,%rdi
    35fb:	e8 38 ef ff ff       	callq  2538 <_ZNK9__gnu_cxx17__normal_iteratorIPSt4pairIiiESt6vectorIS2_SaIS2_EEEplEl>
    3600:	48 89 45 c8          	mov    %rax,-0x38(%rbp)
    3604:	48 8d 45 c8          	lea    -0x38(%rbp),%rax
    3608:	48 89 c7             	mov    %rax,%rdi
    360b:	e8 8c e3 ff ff       	callq  199c <_ZNK9__gnu_cxx17__normal_iteratorIPSt4pairIiiESt6vectorIS2_SaIS2_EEEdeEv>
    3610:	48 89 de             	mov    %rbx,%rsi
    3613:	48 89 c7             	mov    %rax,%rdi
    3616:	e8 ab f6 ff ff       	callq  2cc6 <_ZNSt4pairIiiEaSEOS0_>
    361b:	48 8b 45 d8          	mov    -0x28(%rbp),%rax
    361f:	48 83 e8 01          	sub    $0x1,%rax
    3623:	48 89 45 b0          	mov    %rax,-0x50(%rbp)
    3627:	48 8d 45 9f          	lea    -0x61(%rbp),%rax
    362b:	48 89 c7             	mov    %rax,%rdi
    362e:	e8 2d 02 00 00       	callq  3860 <_ZSt4moveIRN9__gnu_cxx5__ops15_Iter_less_iterEEONSt16remove_referenceIT_E4typeEOS5_>
    3633:	48 8d 45 d0          	lea    -0x30(%rbp),%rax
    3637:	48 89 c7             	mov    %rax,%rdi
    363a:	e8 87 df ff ff       	callq  15c6 <_ZN9__gnu_cxx5__ops14_Iter_less_valC1ENS0_15_Iter_less_iterE>
    363f:	48 8d 45 a0          	lea    -0x60(%rbp),%rax
    3643:	48 89 c7             	mov    %rax,%rdi
    3646:	e8 6f e4 ff ff       	callq  1aba <_ZSt4moveIRSt4pairIiiEEONSt16remove_referenceIT_E4typeEOS4_>
    364b:	48 89 c1             	mov    %rax,%rcx
    364e:	48 8d 7d d0          	lea    -0x30(%rbp),%rdi
    3652:	48 8b 55 e0          	mov    -0x20(%rbp),%rdx
    3656:	48 8b 75 b0          	mov    -0x50(%rbp),%rsi
    365a:	48 8b 45 b8          	mov    -0x48(%rbp),%rax
    365e:	49 89 f8             	mov    %rdi,%r8
    3661:	48 8b 09             	mov    (%rcx),%rcx
    3664:	48 89 c7             	mov    %rax,%rdi
    3667:	e8 06 02 00 00       	callq  3872 <_ZSt11__push_heapIN9__gnu_cxx17__normal_iteratorIPSt4pairIiiESt6vectorIS3_SaIS3_EEEElS3_NS0_5__ops14_Iter_less_valEEvT_T0_SC_T1_RT2_>
    366c:	90                   	nop
    366d:	48 8b 45 e8          	mov    -0x18(%rbp),%rax
    3671:	64 48 33 04 25 28 00 	xor    %fs:0x28,%rax
    3678:	00 00 
    367a:	74 05                	je     3681 <_ZSt13__adjust_heapIN9__gnu_cxx17__normal_iteratorIPSt4pairIiiESt6vectorIS3_SaIS3_EEEElS3_NS0_5__ops15_Iter_less_iterEEvT_T0_SC_T1_T2_+0x21e>
    367c:	e8 2f db ff ff       	callq  11b0 <__stack_chk_fail@plt>
    3681:	48 83 c4 68          	add    $0x68,%rsp
    3685:	5b                   	pop    %rbx
    3686:	5d                   	pop    %rbp
    3687:	c3                   	retq   

0000000000003688 <_ZSt4swapIiiENSt9enable_ifIXsrSt6__and_IJSt14__is_swappableIT_ES2_IT0_EEE5valueEvE4typeERSt4pairIS3_S5_ESC_>:
    3688:	f3 0f 1e fa          	endbr64 
    368c:	55                   	push   %rbp
    368d:	48 89 e5             	mov    %rsp,%rbp
    3690:	48 83 ec 10          	sub    $0x10,%rsp
    3694:	48 89 7d f8          	mov    %rdi,-0x8(%rbp)
    3698:	48 89 75 f0          	mov    %rsi,-0x10(%rbp)
    369c:	48 8b 55 f0          	mov    -0x10(%rbp),%rdx
    36a0:	48 8b 45 f8          	mov    -0x8(%rbp),%rax
    36a4:	48 89 d6             	mov    %rdx,%rsi
    36a7:	48 89 c7             	mov    %rax,%rdi
    36aa:	e8 33 03 00 00       	callq  39e2 <_ZNSt4pairIiiE4swapERS0_>
    36af:	90                   	nop
    36b0:	c9                   	leaveq 
    36b1:	c3                   	retq   

00000000000036b2 <_ZSt12__niter_baseIPSt4pairIiiESt6vectorIS1_SaIS1_EEET_N9__gnu_cxx17__normal_iteratorIS6_T0_EE>:
    36b2:	f3 0f 1e fa          	endbr64 
    36b6:	55                   	push   %rbp
    36b7:	48 89 e5             	mov    %rsp,%rbp
    36ba:	48 83 ec 10          	sub    $0x10,%rsp
    36be:	48 89 7d f8          	mov    %rdi,-0x8(%rbp)
    36c2:	48 8d 45 f8          	lea    -0x8(%rbp),%rax
    36c6:	48 89 c7             	mov    %rax,%rdi
    36c9:	e8 30 e5 ff ff       	callq  1bfe <_ZNK9__gnu_cxx17__normal_iteratorIPSt4pairIiiESt6vectorIS2_SaIS2_EEE4baseEv>
    36ce:	48 8b 00             	mov    (%rax),%rax
    36d1:	c9                   	leaveq 
    36d2:	c3                   	retq   

00000000000036d3 <_ZSt22__copy_move_backward_aILb1EPSt4pairIiiES2_ET1_T0_S4_S3_>:
    36d3:	f3 0f 1e fa          	endbr64 
    36d7:	55                   	push   %rbp
    36d8:	48 89 e5             	mov    %rsp,%rbp
    36db:	48 83 ec 30          	sub    $0x30,%rsp
    36df:	48 89 7d e8          	mov    %rdi,-0x18(%rbp)
    36e3:	48 89 75 e0          	mov    %rsi,-0x20(%rbp)
    36e7:	48 89 55 d8          	mov    %rdx,-0x28(%rbp)
    36eb:	c6 45 ff 00          	movb   $0x0,-0x1(%rbp)
    36ef:	48 8b 55 d8          	mov    -0x28(%rbp),%rdx
    36f3:	48 8b 4d e0          	mov    -0x20(%rbp),%rcx
    36f7:	48 8b 45 e8          	mov    -0x18(%rbp),%rax
    36fb:	48 89 ce             	mov    %rcx,%rsi
    36fe:	48 89 c7             	mov    %rax,%rdi
    3701:	e8 21 03 00 00       	callq  3a27 <_ZNSt20__copy_move_backwardILb1ELb0ESt26random_access_iterator_tagE13__copy_move_bIPSt4pairIiiES5_EET0_T_S7_S6_>
    3706:	c9                   	leaveq 
    3707:	c3                   	retq   

0000000000003708 <_ZSt12__niter_wrapIN9__gnu_cxx17__normal_iteratorIPSt4pairIiiESt6vectorIS3_SaIS3_EEEES4_ET_S9_T0_>:
    3708:	f3 0f 1e fa          	endbr64 
    370c:	55                   	push   %rbp
    370d:	48 89 e5             	mov    %rsp,%rbp
    3710:	48 83 ec 10          	sub    $0x10,%rsp
    3714:	48 89 7d f8          	mov    %rdi,-0x8(%rbp)
    3718:	48 89 75 f0          	mov    %rsi,-0x10(%rbp)
    371c:	48 8b 45 f8          	mov    -0x8(%rbp),%rax
    3720:	48 89 c7             	mov    %rax,%rdi
    3723:	e8 8a ff ff ff       	callq  36b2 <_ZSt12__niter_baseIPSt4pairIiiESt6vectorIS1_SaIS1_EEET_N9__gnu_cxx17__normal_iteratorIS6_T0_EE>
    3728:	48 8b 55 f0          	mov    -0x10(%rbp),%rdx
    372c:	48 29 c2             	sub    %rax,%rdx
    372f:	48 89 d0             	mov    %rdx,%rax
    3732:	48 c1 f8 03          	sar    $0x3,%rax
    3736:	48 89 c2             	mov    %rax,%rdx
    3739:	48 8d 45 f8          	lea    -0x8(%rbp),%rax
    373d:	48 89 d6             	mov    %rdx,%rsi
    3740:	48 89 c7             	mov    %rax,%rdi
    3743:	e8 f0 ed ff ff       	callq  2538 <_ZNK9__gnu_cxx17__normal_iteratorIPSt4pairIiiESt6vectorIS2_SaIS2_EEEplEl>
    3748:	c9                   	leaveq 
    3749:	c3                   	retq   

000000000000374a <_ZSt11__addressofISt4pairIiiEEPT_RS2_>:
    374a:	f3 0f 1e fa          	endbr64 
    374e:	55                   	push   %rbp
    374f:	48 89 e5             	mov    %rsp,%rbp
    3752:	48 89 7d f8          	mov    %rdi,-0x8(%rbp)
    3756:	48 8b 45 f8          	mov    -0x8(%rbp),%rax
    375a:	5d                   	pop    %rbp
    375b:	c3                   	retq   

000000000000375c <_ZSt19__relocate_object_aISt4pairIiiES1_SaIS1_EEvPT_PT0_RT1_>:
    375c:	f3 0f 1e fa          	endbr64 
    3760:	55                   	push   %rbp
    3761:	48 89 e5             	mov    %rsp,%rbp
    3764:	48 83 ec 20          	sub    $0x20,%rsp
    3768:	48 89 7d f8          	mov    %rdi,-0x8(%rbp)
    376c:	48 89 75 f0          	mov    %rsi,-0x10(%rbp)
    3770:	48 89 55 e8          	mov    %rdx,-0x18(%rbp)
    3774:	48 8b 45 f0          	mov    -0x10(%rbp),%rax
    3778:	48 89 c7             	mov    %rax,%rdi
    377b:	e8 3a e3 ff ff       	callq  1aba <_ZSt4moveIRSt4pairIiiEEONSt16remove_referenceIT_E4typeEOS4_>
    3780:	48 89 c2             	mov    %rax,%rdx
    3783:	48 8b 4d f8          	mov    -0x8(%rbp),%rcx
    3787:	48 8b 45 e8          	mov    -0x18(%rbp),%rax
    378b:	48 89 ce             	mov    %rcx,%rsi
    378e:	48 89 c7             	mov    %rax,%rdi
    3791:	e8 f7 e4 ff ff       	callq  1c8d <_ZNSt16allocator_traitsISaISt4pairIiiEEE9constructIS1_JS1_EEEvRS2_PT_DpOT0_>
    3796:	48 8b 45 f0          	mov    -0x10(%rbp),%rax
    379a:	48 89 c7             	mov    %rax,%rdi
    379d:	e8 a8 ff ff ff       	callq  374a <_ZSt11__addressofISt4pairIiiEEPT_RS2_>
    37a2:	48 89 c2             	mov    %rax,%rdx
    37a5:	48 8b 45 e8          	mov    -0x18(%rbp),%rax
    37a9:	48 89 d6             	mov    %rdx,%rsi
    37ac:	48 89 c7             	mov    %rax,%rdi
    37af:	e8 3a ec ff ff       	callq  23ee <_ZNSt16allocator_traitsISaISt4pairIiiEEE7destroyIS1_EEvRS2_PT_>
    37b4:	90                   	nop
    37b5:	c9                   	leaveq 
    37b6:	c3                   	retq   

00000000000037b7 <_ZStneIPSt4pairIiiEEbRKSt13move_iteratorIT_ES7_>:
    37b7:	f3 0f 1e fa          	endbr64 
    37bb:	55                   	push   %rbp
    37bc:	48 89 e5             	mov    %rsp,%rbp
    37bf:	48 83 ec 10          	sub    $0x10,%rsp
    37c3:	48 89 7d f8          	mov    %rdi,-0x8(%rbp)
    37c7:	48 89 75 f0          	mov    %rsi,-0x10(%rbp)
    37cb:	48 8b 55 f0          	mov    -0x10(%rbp),%rdx
    37cf:	48 8b 45 f8          	mov    -0x8(%rbp),%rax
    37d3:	48 89 d6             	mov    %rdx,%rsi
    37d6:	48 89 c7             	mov    %rax,%rdi
    37d9:	e8 ad 02 00 00       	callq  3a8b <_ZSteqIPSt4pairIiiEEbRKSt13move_iteratorIT_ES7_>
    37de:	83 f0 01             	xor    $0x1,%eax
    37e1:	c9                   	leaveq 
    37e2:	c3                   	retq   
    37e3:	90                   	nop

00000000000037e4 <_ZNSt13move_iteratorIPSt4pairIiiEEppEv>:
    37e4:	f3 0f 1e fa          	endbr64 
    37e8:	55                   	push   %rbp
    37e9:	48 89 e5             	mov    %rsp,%rbp
    37ec:	48 89 7d f8          	mov    %rdi,-0x8(%rbp)
    37f0:	48 8b 45 f8          	mov    -0x8(%rbp),%rax
    37f4:	48 8b 00             	mov    (%rax),%rax
    37f7:	48 8d 50 08          	lea    0x8(%rax),%rdx
    37fb:	48 8b 45 f8          	mov    -0x8(%rbp),%rax
    37ff:	48 89 10             	mov    %rdx,(%rax)
    3802:	48 8b 45 f8          	mov    -0x8(%rbp),%rax
    3806:	5d                   	pop    %rbp
    3807:	c3                   	retq   

0000000000003808 <_ZNKSt13move_iteratorIPSt4pairIiiEEdeEv>:
    3808:	f3 0f 1e fa          	endbr64 
    380c:	55                   	push   %rbp
    380d:	48 89 e5             	mov    %rsp,%rbp
    3810:	48 89 7d f8          	mov    %rdi,-0x8(%rbp)
    3814:	48 8b 45 f8          	mov    -0x8(%rbp),%rax
    3818:	48 8b 00             	mov    (%rax),%rax
    381b:	5d                   	pop    %rbp
    381c:	c3                   	retq   

000000000000381d <_ZSt10_ConstructISt4pairIiiEJS1_EEvPT_DpOT0_>:
    381d:	f3 0f 1e fa          	endbr64 
    3821:	55                   	push   %rbp
    3822:	48 89 e5             	mov    %rsp,%rbp
    3825:	53                   	push   %rbx
    3826:	48 83 ec 18          	sub    $0x18,%rsp
    382a:	48 89 7d e8          	mov    %rdi,-0x18(%rbp)
    382e:	48 89 75 e0          	mov    %rsi,-0x20(%rbp)
    3832:	48 8b 45 e0          	mov    -0x20(%rbp),%rax
    3836:	48 89 c7             	mov    %rax,%rdi
    3839:	e8 3d e4 ff ff       	callq  1c7b <_ZSt7forwardISt4pairIiiEEOT_RNSt16remove_referenceIS2_E4typeE>
    383e:	48 89 c3             	mov    %rax,%rbx
    3841:	48 8b 45 e8          	mov    -0x18(%rbp),%rax
    3845:	48 89 c6             	mov    %rax,%rsi
    3848:	bf 08 00 00 00       	mov    $0x8,%edi
    384d:	e8 54 dd ff ff       	callq  15a6 <_ZnwmPv>
    3852:	48 8b 13             	mov    (%rbx),%rdx
    3855:	48 89 10             	mov    %rdx,(%rax)
    3858:	90                   	nop
    3859:	48 83 c4 18          	add    $0x18,%rsp
    385d:	5b                   	pop    %rbx
    385e:	5d                   	pop    %rbp
    385f:	c3                   	retq   

0000000000003860 <_ZSt4moveIRN9__gnu_cxx5__ops15_Iter_less_iterEEONSt16remove_referenceIT_E4typeEOS5_>:
    3860:	f3 0f 1e fa          	endbr64 
    3864:	55                   	push   %rbp
    3865:	48 89 e5             	mov    %rsp,%rbp
    3868:	48 89 7d f8          	mov    %rdi,-0x8(%rbp)
    386c:	48 8b 45 f8          	mov    -0x8(%rbp),%rax
    3870:	5d                   	pop    %rbp
    3871:	c3                   	retq   

0000000000003872 <_ZSt11__push_heapIN9__gnu_cxx17__normal_iteratorIPSt4pairIiiESt6vectorIS3_SaIS3_EEEElS3_NS0_5__ops14_Iter_less_valEEvT_T0_SC_T1_RT2_>:
    3872:	f3 0f 1e fa          	endbr64 
    3876:	55                   	push   %rbp
    3877:	48 89 e5             	mov    %rsp,%rbp
    387a:	53                   	push   %rbx
    387b:	48 83 ec 58          	sub    $0x58,%rsp
    387f:	48 89 7d c8          	mov    %rdi,-0x38(%rbp)
    3883:	48 89 75 c0          	mov    %rsi,-0x40(%rbp)
    3887:	48 89 55 b8          	mov    %rdx,-0x48(%rbp)
    388b:	48 89 4d b0          	mov    %rcx,-0x50(%rbp)
    388f:	4c 89 45 a8          	mov    %r8,-0x58(%rbp)
    3893:	64 48 8b 04 25 28 00 	mov    %fs:0x28,%rax
    389a:	00 00 
    389c:	48 89 45 e8          	mov    %rax,-0x18(%rbp)
    38a0:	31 c0                	xor    %eax,%eax
    38a2:	48 8b 45 c0          	mov    -0x40(%rbp),%rax
    38a6:	48 83 e8 01          	sub    $0x1,%rax
    38aa:	48 89 c2             	mov    %rax,%rdx
    38ad:	48 c1 ea 3f          	shr    $0x3f,%rdx
    38b1:	48 01 d0             	add    %rdx,%rax
    38b4:	48 d1 f8             	sar    %rax
    38b7:	48 89 45 e0          	mov    %rax,-0x20(%rbp)
    38bb:	48 8b 45 c0          	mov    -0x40(%rbp),%rax
    38bf:	48 3b 45 b8          	cmp    -0x48(%rbp),%rax
    38c3:	7e 34                	jle    38f9 <_ZSt11__push_heapIN9__gnu_cxx17__normal_iteratorIPSt4pairIiiESt6vectorIS3_SaIS3_EEEElS3_NS0_5__ops14_Iter_less_valEEvT_T0_SC_T1_RT2_+0x87>
    38c5:	48 8b 55 e0          	mov    -0x20(%rbp),%rdx
    38c9:	48 8d 45 c8          	lea    -0x38(%rbp),%rax
    38cd:	48 89 d6             	mov    %rdx,%rsi
    38d0:	48 89 c7             	mov    %rax,%rdi
    38d3:	e8 60 ec ff ff       	callq  2538 <_ZNK9__gnu_cxx17__normal_iteratorIPSt4pairIiiESt6vectorIS2_SaIS2_EEEplEl>
    38d8:	48 89 c1             	mov    %rax,%rcx
    38db:	48 8d 55 b0          	lea    -0x50(%rbp),%rdx
    38df:	48 8b 45 a8          	mov    -0x58(%rbp),%rax
    38e3:	48 89 ce             	mov    %rcx,%rsi
    38e6:	48 89 c7             	mov    %rax,%rdi
    38e9:	e8 da 01 00 00       	callq  3ac8 <_ZNK9__gnu_cxx5__ops14_Iter_less_valclINS_17__normal_iteratorIPSt4pairIiiESt6vectorIS5_SaIS5_EEEES5_EEbT_RT0_>
    38ee:	84 c0                	test   %al,%al
    38f0:	74 07                	je     38f9 <_ZSt11__push_heapIN9__gnu_cxx17__normal_iteratorIPSt4pairIiiESt6vectorIS3_SaIS3_EEEElS3_NS0_5__ops14_Iter_less_valEEvT_T0_SC_T1_RT2_+0x87>
    38f2:	b8 01 00 00 00       	mov    $0x1,%eax
    38f7:	eb 05                	jmp    38fe <_ZSt11__push_heapIN9__gnu_cxx17__normal_iteratorIPSt4pairIiiESt6vectorIS3_SaIS3_EEEElS3_NS0_5__ops14_Iter_less_valEEvT_T0_SC_T1_RT2_+0x8c>
    38f9:	b8 00 00 00 00       	mov    $0x0,%eax
    38fe:	84 c0                	test   %al,%al
    3900:	0f 84 82 00 00 00    	je     3988 <_ZSt11__push_heapIN9__gnu_cxx17__normal_iteratorIPSt4pairIiiESt6vectorIS3_SaIS3_EEEElS3_NS0_5__ops14_Iter_less_valEEvT_T0_SC_T1_RT2_+0x116>
    3906:	48 8b 55 e0          	mov    -0x20(%rbp),%rdx
    390a:	48 8d 45 c8          	lea    -0x38(%rbp),%rax
    390e:	48 89 d6             	mov    %rdx,%rsi
    3911:	48 89 c7             	mov    %rax,%rdi
    3914:	e8 1f ec ff ff       	callq  2538 <_ZNK9__gnu_cxx17__normal_iteratorIPSt4pairIiiESt6vectorIS2_SaIS2_EEEplEl>
    3919:	48 89 45 d8          	mov    %rax,-0x28(%rbp)
    391d:	48 8d 45 d8          	lea    -0x28(%rbp),%rax
    3921:	48 89 c7             	mov    %rax,%rdi
    3924:	e8 73 e0 ff ff       	callq  199c <_ZNK9__gnu_cxx17__normal_iteratorIPSt4pairIiiESt6vectorIS2_SaIS2_EEEdeEv>
    3929:	48 89 c7             	mov    %rax,%rdi
    392c:	e8 89 e1 ff ff       	callq  1aba <_ZSt4moveIRSt4pairIiiEEONSt16remove_referenceIT_E4typeEOS4_>
    3931:	48 89 c3             	mov    %rax,%rbx
    3934:	48 8b 55 c0          	mov    -0x40(%rbp),%rdx
    3938:	48 8d 45 c8          	lea    -0x38(%rbp),%rax
    393c:	48 89 d6             	mov    %rdx,%rsi
    393f:	48 89 c7             	mov    %rax,%rdi
    3942:	e8 f1 eb ff ff       	callq  2538 <_ZNK9__gnu_cxx17__normal_iteratorIPSt4pairIiiESt6vectorIS2_SaIS2_EEEplEl>
    3947:	48 89 45 d0          	mov    %rax,-0x30(%rbp)
    394b:	48 8d 45 d0          	lea    -0x30(%rbp),%rax
    394f:	48 89 c7             	mov    %rax,%rdi
    3952:	e8 45 e0 ff ff       	callq  199c <_ZNK9__gnu_cxx17__normal_iteratorIPSt4pairIiiESt6vectorIS2_SaIS2_EEEdeEv>
    3957:	48 89 de             	mov    %rbx,%rsi
    395a:	48 89 c7             	mov    %rax,%rdi
    395d:	e8 64 f3 ff ff       	callq  2cc6 <_ZNSt4pairIiiEaSEOS0_>
    3962:	48 8b 45 e0          	mov    -0x20(%rbp),%rax
    3966:	48 89 45 c0          	mov    %rax,-0x40(%rbp)
    396a:	48 8b 45 c0          	mov    -0x40(%rbp),%rax
    396e:	48 83 e8 01          	sub    $0x1,%rax
    3972:	48 89 c2             	mov    %rax,%rdx
    3975:	48 c1 ea 3f          	shr    $0x3f,%rdx
    3979:	48 01 d0             	add    %rdx,%rax
    397c:	48 d1 f8             	sar    %rax
    397f:	48 89 45 e0          	mov    %rax,-0x20(%rbp)
    3983:	e9 33 ff ff ff       	jmpq   38bb <_ZSt11__push_heapIN9__gnu_cxx17__normal_iteratorIPSt4pairIiiESt6vectorIS3_SaIS3_EEEElS3_NS0_5__ops14_Iter_less_valEEvT_T0_SC_T1_RT2_+0x49>
    3988:	48 8d 45 b0          	lea    -0x50(%rbp),%rax
    398c:	48 89 c7             	mov    %rax,%rdi
    398f:	e8 26 e1 ff ff       	callq  1aba <_ZSt4moveIRSt4pairIiiEEONSt16remove_referenceIT_E4typeEOS4_>
    3994:	48 89 c3             	mov    %rax,%rbx
    3997:	48 8b 55 c0          	mov    -0x40(%rbp),%rdx
    399b:	48 8d 45 c8          	lea    -0x38(%rbp),%rax
    399f:	48 89 d6             	mov    %rdx,%rsi
    39a2:	48 89 c7             	mov    %rax,%rdi
    39a5:	e8 8e eb ff ff       	callq  2538 <_ZNK9__gnu_cxx17__normal_iteratorIPSt4pairIiiESt6vectorIS2_SaIS2_EEEplEl>
    39aa:	48 89 45 d8          	mov    %rax,-0x28(%rbp)
    39ae:	48 8d 45 d8          	lea    -0x28(%rbp),%rax
    39b2:	48 89 c7             	mov    %rax,%rdi
    39b5:	e8 e2 df ff ff       	callq  199c <_ZNK9__gnu_cxx17__normal_iteratorIPSt4pairIiiESt6vectorIS2_SaIS2_EEEdeEv>
    39ba:	48 89 de             	mov    %rbx,%rsi
    39bd:	48 89 c7             	mov    %rax,%rdi
    39c0:	e8 01 f3 ff ff       	callq  2cc6 <_ZNSt4pairIiiEaSEOS0_>
    39c5:	90                   	nop
    39c6:	48 8b 45 e8          	mov    -0x18(%rbp),%rax
    39ca:	64 48 33 04 25 28 00 	xor    %fs:0x28,%rax
    39d1:	00 00 
    39d3:	74 05                	je     39da <_ZSt11__push_heapIN9__gnu_cxx17__normal_iteratorIPSt4pairIiiESt6vectorIS3_SaIS3_EEEElS3_NS0_5__ops14_Iter_less_valEEvT_T0_SC_T1_RT2_+0x168>
    39d5:	e8 d6 d7 ff ff       	callq  11b0 <__stack_chk_fail@plt>
    39da:	48 83 c4 58          	add    $0x58,%rsp
    39de:	5b                   	pop    %rbx
    39df:	5d                   	pop    %rbp
    39e0:	c3                   	retq   
    39e1:	90                   	nop

00000000000039e2 <_ZNSt4pairIiiE4swapERS0_>:
    39e2:	f3 0f 1e fa          	endbr64 
    39e6:	55                   	push   %rbp
    39e7:	48 89 e5             	mov    %rsp,%rbp
    39ea:	48 83 ec 10          	sub    $0x10,%rsp
    39ee:	48 89 7d f8          	mov    %rdi,-0x8(%rbp)
    39f2:	48 89 75 f0          	mov    %rsi,-0x10(%rbp)
    39f6:	48 8b 55 f0          	mov    -0x10(%rbp),%rdx
    39fa:	48 8b 45 f8          	mov    -0x8(%rbp),%rax
    39fe:	48 89 d6             	mov    %rdx,%rsi
    3a01:	48 89 c7             	mov    %rax,%rdi
    3a04:	e8 09 01 00 00       	callq  3b12 <_ZSt4swapIiENSt9enable_ifIXsrSt6__and_IJSt6__not_ISt15__is_tuple_likeIT_EESt21is_move_constructibleIS4_ESt18is_move_assignableIS4_EEE5valueEvE4typeERS4_SE_>
    3a09:	48 8b 45 f0          	mov    -0x10(%rbp),%rax
    3a0d:	48 8d 50 04          	lea    0x4(%rax),%rdx
    3a11:	48 8b 45 f8          	mov    -0x8(%rbp),%rax
    3a15:	48 83 c0 04          	add    $0x4,%rax
    3a19:	48 89 d6             	mov    %rdx,%rsi
    3a1c:	48 89 c7             	mov    %rax,%rdi
    3a1f:	e8 ee 00 00 00       	callq  3b12 <_ZSt4swapIiENSt9enable_ifIXsrSt6__and_IJSt6__not_ISt15__is_tuple_likeIT_EESt21is_move_constructibleIS4_ESt18is_move_assignableIS4_EEE5valueEvE4typeERS4_SE_>
    3a24:	90                   	nop
    3a25:	c9                   	leaveq 
    3a26:	c3                   	retq   

0000000000003a27 <_ZNSt20__copy_move_backwardILb1ELb0ESt26random_access_iterator_tagE13__copy_move_bIPSt4pairIiiES5_EET0_T_S7_S6_>:
    3a27:	f3 0f 1e fa          	endbr64 
    3a2b:	55                   	push   %rbp
    3a2c:	48 89 e5             	mov    %rsp,%rbp
    3a2f:	48 83 ec 30          	sub    $0x30,%rsp
    3a33:	48 89 7d e8          	mov    %rdi,-0x18(%rbp)
    3a37:	48 89 75 e0          	mov    %rsi,-0x20(%rbp)
    3a3b:	48 89 55 d8          	mov    %rdx,-0x28(%rbp)
    3a3f:	48 8b 45 e0          	mov    -0x20(%rbp),%rax
    3a43:	48 2b 45 e8          	sub    -0x18(%rbp),%rax
    3a47:	48 c1 f8 03          	sar    $0x3,%rax
    3a4b:	48 89 45 f8          	mov    %rax,-0x8(%rbp)
    3a4f:	48 83 7d f8 00       	cmpq   $0x0,-0x8(%rbp)
    3a54:	7e 2f                	jle    3a85 <_ZNSt20__copy_move_backwardILb1ELb0ESt26random_access_iterator_tagE13__copy_move_bIPSt4pairIiiES5_EET0_T_S7_S6_+0x5e>
    3a56:	48 83 6d e0 08       	subq   $0x8,-0x20(%rbp)
    3a5b:	48 8b 45 e0          	mov    -0x20(%rbp),%rax
    3a5f:	48 89 c7             	mov    %rax,%rdi
    3a62:	e8 53 e0 ff ff       	callq  1aba <_ZSt4moveIRSt4pairIiiEEONSt16remove_referenceIT_E4typeEOS4_>
    3a67:	48 89 c2             	mov    %rax,%rdx
    3a6a:	48 83 6d d8 08       	subq   $0x8,-0x28(%rbp)
    3a6f:	48 8b 45 d8          	mov    -0x28(%rbp),%rax
    3a73:	48 89 d6             	mov    %rdx,%rsi
    3a76:	48 89 c7             	mov    %rax,%rdi
    3a79:	e8 48 f2 ff ff       	callq  2cc6 <_ZNSt4pairIiiEaSEOS0_>
    3a7e:	48 83 6d f8 01       	subq   $0x1,-0x8(%rbp)
    3a83:	eb ca                	jmp    3a4f <_ZNSt20__copy_move_backwardILb1ELb0ESt26random_access_iterator_tagE13__copy_move_bIPSt4pairIiiES5_EET0_T_S7_S6_+0x28>
    3a85:	48 8b 45 d8          	mov    -0x28(%rbp),%rax
    3a89:	c9                   	leaveq 
    3a8a:	c3                   	retq   

0000000000003a8b <_ZSteqIPSt4pairIiiEEbRKSt13move_iteratorIT_ES7_>:
    3a8b:	f3 0f 1e fa          	endbr64 
    3a8f:	55                   	push   %rbp
    3a90:	48 89 e5             	mov    %rsp,%rbp
    3a93:	53                   	push   %rbx
    3a94:	48 83 ec 18          	sub    $0x18,%rsp
    3a98:	48 89 7d e8          	mov    %rdi,-0x18(%rbp)
    3a9c:	48 89 75 e0          	mov    %rsi,-0x20(%rbp)
    3aa0:	48 8b 45 e8          	mov    -0x18(%rbp),%rax
    3aa4:	48 89 c7             	mov    %rax,%rdi
    3aa7:	e8 da 00 00 00       	callq  3b86 <_ZNKSt13move_iteratorIPSt4pairIiiEE4baseEv>
    3aac:	48 89 c3             	mov    %rax,%rbx
    3aaf:	48 8b 45 e0          	mov    -0x20(%rbp),%rax
    3ab3:	48 89 c7             	mov    %rax,%rdi
    3ab6:	e8 cb 00 00 00       	callq  3b86 <_ZNKSt13move_iteratorIPSt4pairIiiEE4baseEv>
    3abb:	48 39 c3             	cmp    %rax,%rbx
    3abe:	0f 94 c0             	sete   %al
    3ac1:	48 83 c4 18          	add    $0x18,%rsp
    3ac5:	5b                   	pop    %rbx
    3ac6:	5d                   	pop    %rbp
    3ac7:	c3                   	retq   

0000000000003ac8 <_ZNK9__gnu_cxx5__ops14_Iter_less_valclINS_17__normal_iteratorIPSt4pairIiiESt6vectorIS5_SaIS5_EEEES5_EEbT_RT0_>:
    3ac8:	f3 0f 1e fa          	endbr64 
    3acc:	55                   	push   %rbp
    3acd:	48 89 e5             	mov    %rsp,%rbp
    3ad0:	48 83 ec 20          	sub    $0x20,%rsp
    3ad4:	48 89 7d f8          	mov    %rdi,-0x8(%rbp)
    3ad8:	48 89 75 f0          	mov    %rsi,-0x10(%rbp)
    3adc:	48 89 55 e8          	mov    %rdx,-0x18(%rbp)
    3ae0:	48 8d 45 f0          	lea    -0x10(%rbp),%rax
    3ae4:	48 89 c7             	mov    %rax,%rdi
    3ae7:	e8 b0 de ff ff       	callq  199c <_ZNK9__gnu_cxx17__normal_iteratorIPSt4pairIiiESt6vectorIS2_SaIS2_EEEdeEv>
    3aec:	48 89 c2             	mov    %rax,%rdx
    3aef:	48 8b 45 e8          	mov    -0x18(%rbp),%rax
    3af3:	48 89 c6             	mov    %rax,%rsi
    3af6:	48 89 d7             	mov    %rdx,%rdi
    3af9:	e8 a2 f6 ff ff       	callq  31a0 <_ZStltIiiEbRKSt4pairIT_T0_ES5_>
    3afe:	c9                   	leaveq 
    3aff:	c3                   	retq   

0000000000003b00 <_ZSt4moveIRiEONSt16remove_referenceIT_E4typeEOS2_>:
    3b00:	f3 0f 1e fa          	endbr64 
    3b04:	55                   	push   %rbp
    3b05:	48 89 e5             	mov    %rsp,%rbp
    3b08:	48 89 7d f8          	mov    %rdi,-0x8(%rbp)
    3b0c:	48 8b 45 f8          	mov    -0x8(%rbp),%rax
    3b10:	5d                   	pop    %rbp
    3b11:	c3                   	retq   

0000000000003b12 <_ZSt4swapIiENSt9enable_ifIXsrSt6__and_IJSt6__not_ISt15__is_tuple_likeIT_EESt21is_move_constructibleIS4_ESt18is_move_assignableIS4_EEE5valueEvE4typeERS4_SE_>:
    3b12:	f3 0f 1e fa          	endbr64 
    3b16:	55                   	push   %rbp
    3b17:	48 89 e5             	mov    %rsp,%rbp
    3b1a:	48 83 ec 20          	sub    $0x20,%rsp
    3b1e:	48 89 7d e8          	mov    %rdi,-0x18(%rbp)
    3b22:	48 89 75 e0          	mov    %rsi,-0x20(%rbp)
    3b26:	64 48 8b 04 25 28 00 	mov    %fs:0x28,%rax
    3b2d:	00 00 
    3b2f:	48 89 45 f8          	mov    %rax,-0x8(%rbp)
    3b33:	31 c0                	xor    %eax,%eax
    3b35:	48 8b 45 e8          	mov    -0x18(%rbp),%rax
    3b39:	48 89 c7             	mov    %rax,%rdi
    3b3c:	e8 bf ff ff ff       	callq  3b00 <_ZSt4moveIRiEONSt16remove_referenceIT_E4typeEOS2_>
    3b41:	8b 00                	mov    (%rax),%eax
    3b43:	89 45 f4             	mov    %eax,-0xc(%rbp)
    3b46:	48 8b 45 e0          	mov    -0x20(%rbp),%rax
    3b4a:	48 89 c7             	mov    %rax,%rdi
    3b4d:	e8 ae ff ff ff       	callq  3b00 <_ZSt4moveIRiEONSt16remove_referenceIT_E4typeEOS2_>
    3b52:	8b 10                	mov    (%rax),%edx
    3b54:	48 8b 45 e8          	mov    -0x18(%rbp),%rax
    3b58:	89 10                	mov    %edx,(%rax)
    3b5a:	48 8d 45 f4          	lea    -0xc(%rbp),%rax
    3b5e:	48 89 c7             	mov    %rax,%rdi
    3b61:	e8 9a ff ff ff       	callq  3b00 <_ZSt4moveIRiEONSt16remove_referenceIT_E4typeEOS2_>
    3b66:	8b 10                	mov    (%rax),%edx
    3b68:	48 8b 45 e0          	mov    -0x20(%rbp),%rax
    3b6c:	89 10                	mov    %edx,(%rax)
    3b6e:	90                   	nop
    3b6f:	48 8b 45 f8          	mov    -0x8(%rbp),%rax
    3b73:	64 48 33 04 25 28 00 	xor    %fs:0x28,%rax
    3b7a:	00 00 
    3b7c:	74 05                	je     3b83 <_ZSt4swapIiENSt9enable_ifIXsrSt6__and_IJSt6__not_ISt15__is_tuple_likeIT_EESt21is_move_constructibleIS4_ESt18is_move_assignableIS4_EEE5valueEvE4typeERS4_SE_+0x71>
    3b7e:	e8 2d d6 ff ff       	callq  11b0 <__stack_chk_fail@plt>
    3b83:	c9                   	leaveq 
    3b84:	c3                   	retq   
    3b85:	90                   	nop

0000000000003b86 <_ZNKSt13move_iteratorIPSt4pairIiiEE4baseEv>:
    3b86:	f3 0f 1e fa          	endbr64 
    3b8a:	55                   	push   %rbp
    3b8b:	48 89 e5             	mov    %rsp,%rbp
    3b8e:	48 89 7d f8          	mov    %rdi,-0x8(%rbp)
    3b92:	48 8b 45 f8          	mov    -0x8(%rbp),%rax
    3b96:	48 8b 00             	mov    (%rax),%rax
    3b99:	5d                   	pop    %rbp
    3b9a:	c3                   	retq   
    3b9b:	0f 1f 44 00 00       	nopl   0x0(%rax,%rax,1)

0000000000003ba0 <__libc_csu_init>:
    3ba0:	f3 0f 1e fa          	endbr64 
    3ba4:	41 57                	push   %r15
    3ba6:	4c 8d 3d 6b 31 00 00 	lea    0x316b(%rip),%r15        # 6d18 <__frame_dummy_init_array_entry>
    3bad:	41 56                	push   %r14
    3baf:	49 89 d6             	mov    %rdx,%r14
    3bb2:	41 55                	push   %r13
    3bb4:	49 89 f5             	mov    %rsi,%r13
    3bb7:	41 54                	push   %r12
    3bb9:	41 89 fc             	mov    %edi,%r12d
    3bbc:	55                   	push   %rbp
    3bbd:	48 8d 2d 64 31 00 00 	lea    0x3164(%rip),%rbp        # 6d28 <__do_global_dtors_aux_fini_array_entry>
    3bc4:	53                   	push   %rbx
    3bc5:	4c 29 fd             	sub    %r15,%rbp
    3bc8:	48 83 ec 08          	sub    $0x8,%rsp
    3bcc:	e8 2f d4 ff ff       	callq  1000 <_init>
    3bd1:	48 c1 fd 03          	sar    $0x3,%rbp
    3bd5:	74 1f                	je     3bf6 <__libc_csu_init+0x56>
    3bd7:	31 db                	xor    %ebx,%ebx
    3bd9:	0f 1f 80 00 00 00 00 	nopl   0x0(%rax)
    3be0:	4c 89 f2             	mov    %r14,%rdx
    3be3:	4c 89 ee             	mov    %r13,%rsi
    3be6:	44 89 e7             	mov    %r12d,%edi
    3be9:	41 ff 14 df          	callq  *(%r15,%rbx,8)
    3bed:	48 83 c3 01          	add    $0x1,%rbx
    3bf1:	48 39 dd             	cmp    %rbx,%rbp
    3bf4:	75 ea                	jne    3be0 <__libc_csu_init+0x40>
    3bf6:	48 83 c4 08          	add    $0x8,%rsp
    3bfa:	5b                   	pop    %rbx
    3bfb:	5d                   	pop    %rbp
    3bfc:	41 5c                	pop    %r12
    3bfe:	41 5d                	pop    %r13
    3c00:	41 5e                	pop    %r14
    3c02:	41 5f                	pop    %r15
    3c04:	c3                   	retq   
    3c05:	66 66 2e 0f 1f 84 00 	data16 nopw %cs:0x0(%rax,%rax,1)
    3c0c:	00 00 00 00 

0000000000003c10 <__libc_csu_fini>:
    3c10:	f3 0f 1e fa          	endbr64 
    3c14:	c3                   	retq   

Disassembly of section .fini:

0000000000003c18 <_fini>:
    3c18:	f3 0f 1e fa          	endbr64 
    3c1c:	48 83 ec 08          	sub    $0x8,%rsp
    3c20:	48 83 c4 08          	add    $0x8,%rsp
    3c24:	c3                   	retq   
